ccopy_reg
_reconstructor
p0
(cstrictdoc.backend.sdoc.models.document
SDocDocument
p1
c__builtin__
object
p2
Ntp3
Rp4
(dp5
Vmid
p6
NsVtitle
p7
VRequirements Management System Requirements
p8
sVconfig
p9
g0
(cstrictdoc.backend.sdoc.models.document_config
DocumentConfig
p10
g2
Ntp11
Rp12
(dp13
Vuid
p14
VRMS-001
p15
sVversion
p16
V1.0
p17
sVdate
p18
V2025-01-29
p19
sVclassification
p20
VITAR CONTROLLED - NO FOREIGN PERSONS
p21
sVrequirement_prefix
p22
NsVroot
p23
NsVenable_mid
p24
NsVmarkup
p25
NsVauto_levels
p26
I01
sVlayout
p27
NsVview_style_tag
p28
V
p29
sVrequirement_style
p30
NsVnode_in_toc_tag
p31
g29
sVrequirement_in_toc
p32
NsVdefault_view
p33
NsVcustom_metadata
p34
NsV_tx_position
p35
I62
sV_tx_position_end
p36
I158
sVparent
p37
g4
sVng_auto_levels_specified
p38
I00
sVng_line_start
p39
I3
sVng_col_start
p40
I1
sbsVview
p41
g0
(cstrictdoc.backend.sdoc.models.document_view
DocumentView
p42
g2
Ntp43
Rp44
(dp45
g37
g4
sVviews
p46
(lp47
g0
(cstrictdoc.backend.sdoc.models.document_view
DefaultViewElement
p48
g2
Ntp49
Rp50
(dp51
g37
g44
sVview_id
p52
VNOT_RELEVANT
p53
sVtags
p54
(lp55
sVhidden_tags
p56
(lp57
sVname
p58
Nsbasg39
I51
sg40
I114
sbsVgrammar
p59
g0
(cstrictdoc.backend.sdoc.models.document_grammar
DocumentGrammar
p60
g2
Ntp61
Rp62
(dp63
Velements
p64
(lp65
g0
(cstrictdoc.backend.sdoc.models.grammar_element
GrammarElement
p66
g2
Ntp67
Rp68
(dp69
g37
g62
sVtag
p70
VSECTION
p71
sVproperty_is_composite
p72
I01
sVproperty_prefix
p73
NsVproperty_view_style
p74
NsVproperty_view_style_lower
p75
NsVfields
p76
(lp77
g0
(cstrictdoc.backend.sdoc.models.grammar_element
GrammarElementFieldString
p78
g2
Ntp79
Rp80
(dp81
g7
VUID
p82
sVhuman_title
p83
NsVgef_type
p84
VString
p85
sVrequired
p86
I00
sg6
g0
(cstrictdoc.helpers.mid
MID
p87
c__builtin__
unicode
p88
V8a6223a911344be7ab3b5cce8036303e
p89
tp90
Rp91
sg37
Nsbag0
(g78
g2
Ntp92
Rp93
(dp94
g7
VLEVEL
p95
sg83
Nsg84
g85
sg86
I00
sg6
g0
(g87
g88
V54570e8ac184452a9e54ca254a717230
p96
tp97
Rp98
sg37
Nsbag0
(g78
g2
Ntp99
Rp100
(dp101
g7
VPREFIX
p102
sg83
Nsg84
g85
sg86
I00
sg6
g0
(g87
g88
Vfa86d4f86c09432d9513840a54355533
p103
tp104
Rp105
sg37
Nsbag0
(g78
g2
Ntp106
Rp107
(dp108
g7
VTITLE
p109
sg83
Nsg84
g85
sg86
I01
sg6
g0
(g87
g88
Vdcaad88a98654631923eb875c8306580
p110
tp111
Rp112
sg37
NsbasVrelations
p113
(lp114
sVfields_map
p115
ccollections
OrderedDict
p116
(tRp117
g82
g80
sg95
g93
sg102
g100
sg109
g107
ssVfield_titles
p118
(lp119
g82
ag95
ag102
ag109
asVcontent_field
p120
(g29
I-1
tp121
sV_multiline_field_index
p122
I4
sg6
g0
(g87
g88
V62d466a2e1ed4863b35512db19897f96
p123
tp124
Rp125
sg39
Nsg40
Nsbag0
(g66
g2
Ntp126
Rp127
(dp128
g37
g62
sg70
VTEXT
p129
sg72
Nsg73
Nsg74
Nsg75
Nsg76
(lp130
g0
(g78
g2
Ntp131
Rp132
(dp133
g7
g82
sg83
Nsg84
g85
sg86
I00
sg6
g0
(g87
g88
V15c2b4a53e044f05a54683a2a2ad553d
p134
tp135
Rp136
sg37
Nsbag0
(g78
g2
Ntp137
Rp138
(dp139
g7
VSTATEMENT
p140
sg83
Nsg84
g85
sg86
I01
sg6
g0
(g87
g88
Veed9f0afc6454b5e8845ae8bdec0e945
p141
tp142
Rp143
sg37
Nsbasg113
(lp144
sg115
g116
(tRp145
g82
g132
sg140
g138
ssg118
(lp146
g82
ag140
asg120
(g140
I1
tp147
sg122
I1
sg6
g0
(g87
g88
V7f78b92c1357481da1333a754f6e72c3
p148
tp149
Rp150
sg39
Nsg40
Nsbag0
(g66
g2
Ntp151
Rp152
(dp153
g70
VREQUIREMENT
p154
sg72
Nsg73
Nsg74
Nsg76
(lp155
g0
(g78
g2
Ntp156
Rp157
(dp158
g7
VUID
p159
sg83
Nsg86
I01
sg35
I208
sg36
I259
sg37
g152
sg84
g85
sg6
g0
(g87
g88
Vb9c4cf2fd47f450f8ef09b703ec0c181
p160
tp161
Rp162
sbag0
(g78
g2
Ntp163
Rp164
(dp165
g7
VTITLE
p166
sg83
Nsg86
I01
sg35
I259
sg36
I312
sg37
g152
sg84
g85
sg6
g0
(g87
g88
V5d219c41927040009cb522b860806eed
p167
tp168
Rp169
sbag0
(g78
g2
Ntp170
Rp171
(dp172
g7
VSTATEMENT
p173
sg83
Nsg86
I01
sg35
I312
sg36
I369
sg37
g152
sg84
g85
sg6
g0
(g87
g88
V7e89adf65b324cf2b905cc50e7a6fa06
p174
tp175
Rp176
sbag0
(g78
g2
Ntp177
Rp178
(dp179
g7
VRATIONALE
p180
sg83
Nsg86
I01
sg35
I369
sg36
I426
sg37
g152
sg84
g85
sg6
g0
(g87
g88
V6f247b7b501c40f48baefbd4f76a27fc
p181
tp182
Rp183
sbag0
(g78
g2
Ntp184
Rp185
(dp186
g7
VVERIFICATION_METHOD
p187
sg83
Nsg86
I01
sg35
I426
sg36
I493
sg37
g152
sg84
g85
sg6
g0
(g87
g88
Ve166e3f1dc36426dbee5821a64e8b442
p188
tp189
Rp190
sbag0
(g78
g2
Ntp191
Rp192
(dp193
g7
VITAR_CLASSIFICATION
p194
sg83
Nsg86
I01
sg35
I493
sg36
I560
sg37
g152
sg84
g85
sg6
g0
(g87
g88
Vb8e88f8884e4423f80f871b3b8f13892
p195
tp196
Rp197
sbag0
(g78
g2
Ntp198
Rp199
(dp200
g7
VEXPORT_CONTROL
p201
sg83
Nsg86
I01
sg35
I560
sg36
I622
sg37
g152
sg84
g85
sg6
g0
(g87
g88
Ve2f192b3044341a8b5398d121a9258f5
p202
tp203
Rp204
sbag0
(cstrictdoc.backend.sdoc.models.grammar_element
GrammarElementFieldSingleChoice
p205
g2
Ntp206
Rp207
(dp208
g7
VSTATUS
p209
sg83
NsVoptions
p210
(lp211
VDraft
p212
aVActive
p213
aVDeleted
p214
asg86
I01
sg35
I622
sg36
I706
sg37
g152
sg84
VSingleChoice
p215
sg6
g0
(g87
g88
V01934b462b764dce91a690fb48fa6a21
p216
tp217
Rp218
sbasg113
(lp219
g0
(cstrictdoc.backend.sdoc.models.grammar_element
GrammarElementRelationChild
p220
g2
Ntp221
Rp222
(dp223
Vrelation_type
p224
VChild
p225
sVrelation_role
p226
VRefines
p227
sg35
I719
sg36
I753
sg37
g152
sg6
g0
(g87
g88
V43b6988f110e40879851f5458195ad78
p228
tp229
Rp230
sbasg35
I179
sg36
I753
sg37
g62
sg75
Nsg115
g116
(tRp231
g159
g157
sg166
g164
sg173
g171
sg180
g178
sg187
g185
sg194
g192
sg201
g199
sg209
g207
ssg118
(lp232
g159
ag166
ag173
ag180
ag187
ag194
ag201
ag209
asg120
(g140
I2
tp233
sg122
I2
sg6
g0
(g87
g88
Va591a684792f476faa0e438b193c8f39
p234
tp235
Rp236
sg39
I10
sg40
I1
sVng_line_end
p237
I39
sVng_col_end
p238
I1
sVng_byte_start
p239
I179
sVng_byte_end
p240
I753
sbasVimport_from_file
p241
Nsg35
I159
sg36
I753
sg37
g4
sVregistered_elements
p242
c__builtin__
set
p243
((lp244
g71
ag129
ag154
atp245
Rp246
sVelements_by_type
p247
(dp248
g71
g68
sg129
g127
sg154
g152
ssVis_default
p249
I00
sg39
I8
sg40
I1
sg237
I39
sg238
I1
sg239
I159
sg240
I753
sbsVsection_contents
p250
(lp251
g0
(cstrictdoc.backend.sdoc.models.node
SDocCompositeNode
p252
g2
Ntp253
Rp254
(dp255
Vnode_type
p256
VSECTION
p257
sg76
(lp258
g0
(cstrictdoc.backend.sdoc.models.node
SDocNodeField
p259
g2
Ntp260
Rp261
(dp262
Vfield_name
p263
VUID
p264
sVparts
p265
(lp266
VRMS-GEN
p267
asVmultiline__
p268
g29
sg35
I766
sg36
I779
sg37
g254
sVmultiline
p269
I00
sbag0
(g259
g2
Ntp270
Rp271
(dp272
g263
VTITLE
p273
sg265
(lp274
VGeneral Requirements Management
p275
asg268
g29
sg35
I779
sg36
I818
sg37
g254
sg269
I00
sbasg113
(lp276
sg250
(lp277
g0
(cstrictdoc.backend.sdoc.models.node
SDocNode
p278
g2
Ntp279
Rp280
(dp281
g256
VREQUIREMENT
p282
sg76
(lp283
g0
(g259
g2
Ntp284
Rp285
(dp286
g263
g264
sg265
(lp287
VRMS-001
p288
asg268
g29
sg35
I833
sg36
I846
sg37
g280
sg269
I00
sbag0
(g259
g2
Ntp289
Rp290
(dp291
g263
VTITLE
p292
sg265
(lp293
VRequirements Management System Selection
p294
asg268
g29
sg35
I846
sg36
I894
sg37
g280
sg269
I00
sbag0
(g259
g2
Ntp295
Rp296
(dp297
g263
VSTATEMENT
p298
sg265
(lp299
VThe project shall utilize a requirements management system capable of maintaining traceability, version control, and export control compliance for ITAR-regulated technical data.\u000a
p300
asg268
V>>>\u000a
p301
sg35
I894
sg36
I1091
sg37
g280
sg269
I01
sbag0
(g259
g2
Ntp302
Rp303
(dp304
g263
VRATIONALE
p305
sg265
(lp306
VITAR regulations require strict control and traceability of technical data related to defense articles. A formal requirements management system ensures compliance with export control regulations and provides audit trails for regulatory compliance.\u000a
p307
asg268
V>>>\u000a
p308
sg35
I1091
sg36
I1358
sg37
g280
sg269
I01
sbag0
(g259
g2
Ntp309
Rp310
(dp311
g263
VVERIFICATION_METHOD
p312
sg265
(lp313
VReview of requirements management system selection documentation and compliance verification report.\u000a
p314
asg268
V>>>\u000a
p315
sg35
I1358
sg36
I1488
sg37
g280
sg269
I01
sbag0
(g259
g2
Ntp316
Rp317
(dp318
g263
VITAR_CLASSIFICATION
p319
sg265
(lp320
VITAR CONTROLLED
p321
asg268
g29
sg35
I1488
sg36
I1525
sg37
g280
sg269
I00
sbag0
(g259
g2
Ntp322
Rp323
(dp324
g263
VEXPORT_CONTROL
p325
sg265
(lp326
VEAR99
p327
asg268
g29
sg35
I1525
sg36
I1547
sg37
g280
sg269
I00
sbag0
(g259
g2
Ntp328
Rp329
(dp330
g263
VSTATUS
p331
sg265
(lp332
VActive
p333
asg268
g29
sg35
I1547
sg36
I1562
sg37
g280
sg269
I00
sbasg113
(lp334
sg35
I819
sg36
I1562
sg37
g254
sVis_composite
p335
I00
sg250
(lp336
sVhas_meta
p337
I01
sVfields_as_parsed
p338
g283
sVordered_fields_lookup
p339
g116
(tRp340
g264
(lp341
g285
asg292
(lp342
g290
asg298
(lp343
g296
asg305
(lp344
g303
asg312
(lp345
g310
asg319
(lp346
g317
asg325
(lp347
g323
asg331
(lp348
g329
assVng_level
p349
I2
sVng_document_reference
p350
g0
(cstrictdoc.backend.sdoc.document_reference
DocumentReference
p351
g2
Ntp352
Rp353
(dp354
V_document
p355
g4
sbsVng_including_document_reference
p356
g0
(g351
g2
Ntp357
Rp358
(dp359
g355
Nsbsg39
I44
sg237
I59
sg40
I1
sg238
I1
sg239
I819
sg240
I1562
sVcontext
p360
g0
(cstrictdoc.backend.sdoc.models.node
SDocNodeContext
p361
g2
Ntp362
Rp363
(dp364
Vtitle_number_string
p365
V1.1
p366
sbsVreserved_mid
p367
g0
(g87
g88
Vdcc0e1c931c54fc6b270c583a5645de2
p368
tp369
Rp370
sVmid_permanent
p371
I00
sVng_resolved_custom_level
p372
NsVcustom_level
p373
NsVng_whitelisted
p374
I01
sVng_has_requirements
p375
I00
sVautogen
p376
I00
sbag0
(g278
g2
Ntp377
Rp378
(dp379
g256
VREQUIREMENT
p380
sg76
(lp381
g0
(g259
g2
Ntp382
Rp383
(dp384
g263
g264
sg265
(lp385
VRMS-002
p386
asg268
g29
sg35
I1577
sg36
I1590
sg37
g378
sg269
I00
sbag0
(g259
g2
Ntp387
Rp388
(dp389
g263
VTITLE
p390
sg265
(lp391
VRequirements Tool Selection - Doorstop
p392
asg268
g29
sg35
I1590
sg36
I1636
sg37
g378
sg269
I00
sbag0
(g259
g2
Ntp393
Rp394
(dp395
g263
VSTATEMENT
p396
sg265
(lp397
VThe project shall utilize Doorstop as the primary requirements management tool for all requirements documentation and traceability management.\u000a
p398
asg268
V>>>\u000a
p399
sg35
I1636
sg36
I1798
sg37
g378
sg269
I01
sbag0
(g259
g2
Ntp400
Rp401
(dp402
g263
VRATIONALE
p403
sg265
(lp404
VDoorstop provides text-based requirements management with Git integration, traceability features, and export capabilities suitable for ITAR-controlled environments. Its lightweight architecture and version control integration support controlled access requirements.\u000a
p405
asg268
V>>>\u000a
p406
sg35
I1798
sg36
I2083
sg37
g378
sg269
I01
sbag0
(g259
g2
Ntp407
Rp408
(dp409
g263
VVERIFICATION_METHOD
p410
sg265
(lp411
VReview of tool selection documentation and implementation verification through requirements database review.\u000a
p412
asg268
V>>>\u000a
p413
sg35
I2083
sg36
I2221
sg37
g378
sg269
I01
sbag0
(g259
g2
Ntp414
Rp415
(dp416
g263
VITAR_CLASSIFICATION
p417
sg265
(lp418
VITAR CONTROLLED
p419
asg268
g29
sg35
I2221
sg36
I2258
sg37
g378
sg269
I00
sbag0
(g259
g2
Ntp420
Rp421
(dp422
g263
VEXPORT_CONTROL
p423
sg265
(lp424
VEAR99
p425
asg268
g29
sg35
I2258
sg36
I2280
sg37
g378
sg269
I00
sbag0
(g259
g2
Ntp426
Rp427
(dp428
g263
VSTATUS
p429
sg265
(lp430
VActive
p431
asg268
g29
sg35
I2280
sg36
I2295
sg37
g378
sg269
I00
sbasg113
(lp432
sg35
I1563
sg36
I2295
sg37
g254
sg335
I00
sg250
(lp433
sg337
I01
sg338
g381
sg339
g116
(tRp434
g264
(lp435
g383
asg390
(lp436
g388
asg396
(lp437
g394
asg403
(lp438
g401
asg410
(lp439
g408
asg417
(lp440
g415
asg423
(lp441
g421
asg429
(lp442
g427
assg349
I2
sg350
g353
sg356
g358
sg39
I60
sg237
I75
sg40
I1
sg238
I1
sg239
I1563
sg240
I2295
sg360
g0
(g361
g2
Ntp443
Rp444
(dp445
g365
V1.2
p446
sbsg367
g0
(g87
g88
V74dd17d0bab34ea2ba20612c3b1507eb
p447
tp448
Rp449
sg371
I00
sg372
Nsg373
Nsg374
I01
sg375
I00
sg376
I00
sbag0
(g278
g2
Ntp450
Rp451
(dp452
g256
VREQUIREMENT
p453
sg76
(lp454
g0
(g259
g2
Ntp455
Rp456
(dp457
g263
g264
sg265
(lp458
VRMS-003
p459
asg268
g29
sg35
I2310
sg36
I2323
sg37
g451
sg269
I00
sbag0
(g259
g2
Ntp460
Rp461
(dp462
g263
VTITLE
p463
sg265
(lp464
VITAR Compliance Framework
p465
asg268
g29
sg35
I2323
sg36
I2356
sg37
g451
sg269
I00
sbag0
(g259
g2
Ntp466
Rp467
(dp468
g263
VSTATEMENT
p469
sg265
(lp470
VAll requirements documentation shall comply with International Traffic in Arms Regulations (ITAR) export control requirements, including proper classification marking, access control, and audit trail maintenance.\u000a
p471
asg268
V>>>\u000a
p472
sg35
I2356
sg36
I2588
sg37
g451
sg269
I01
sbag0
(g259
g2
Ntp473
Rp474
(dp475
g263
VRATIONALE
p476
sg265
(lp477
VITAR regulations mandate that technical data related to defense articles be properly controlled and marked. Failure to comply may result in severe penalties including fines and criminal prosecution.\u000a
p478
asg268
V>>>\u000a
p479
sg35
I2588
sg36
I2806
sg37
g451
sg269
I01
sbag0
(g259
g2
Ntp480
Rp481
(dp482
g263
VVERIFICATION_METHOD
p483
sg265
(lp484
VAudit of all requirements documents for proper ITAR classification markings and compliance with export control procedures.\u000a
p485
asg268
V>>>\u000a
p486
sg35
I2806
sg36
I2958
sg37
g451
sg269
I01
sbag0
(g259
g2
Ntp487
Rp488
(dp489
g263
VITAR_CLASSIFICATION
p490
sg265
(lp491
VITAR CONTROLLED
p492
asg268
g29
sg35
I2958
sg36
I2995
sg37
g451
sg269
I00
sbag0
(g259
g2
Ntp493
Rp494
(dp495
g263
VEXPORT_CONTROL
p496
sg265
(lp497
VEAR99
p498
asg268
g29
sg35
I2995
sg36
I3017
sg37
g451
sg269
I00
sbag0
(g259
g2
Ntp499
Rp500
(dp501
g263
VSTATUS
p502
sg265
(lp503
VActive
p504
asg268
g29
sg35
I3017
sg36
I3032
sg37
g451
sg269
I00
sbasg113
(lp505
sg35
I2296
sg36
I3032
sg37
g254
sg335
I00
sg250
(lp506
sg337
I01
sg338
g454
sg339
g116
(tRp507
g264
(lp508
g456
asg463
(lp509
g461
asg469
(lp510
g467
asg476
(lp511
g474
asg483
(lp512
g481
asg490
(lp513
g488
asg496
(lp514
g494
asg502
(lp515
g500
assg349
I2
sg350
g353
sg356
g358
sg39
I76
sg237
I91
sg40
I1
sg238
I1
sg239
I2296
sg240
I3032
sg360
g0
(g361
g2
Ntp516
Rp517
(dp518
g365
V1.3
p519
sbsg367
g0
(g87
g88
V755951b2b64948b4a6ded24d1317f132
p520
tp521
Rp522
sg371
I00
sg372
Nsg373
Nsg374
I01
sg375
I00
sg376
I00
sbag0
(g278
g2
Ntp523
Rp524
(dp525
g256
VREQUIREMENT
p526
sg76
(lp527
g0
(g259
g2
Ntp528
Rp529
(dp530
g263
g264
sg265
(lp531
VRMS-004
p532
asg268
g29
sg35
I3047
sg36
I3060
sg37
g524
sg269
I00
sbag0
(g259
g2
Ntp533
Rp534
(dp535
g263
VTITLE
p536
sg265
(lp537
VRequirements Document Hierarchy
p538
asg268
g29
sg35
I3060
sg36
I3099
sg37
g524
sg269
I00
sbag0
(g259
g2
Ntp539
Rp540
(dp541
g263
VSTATEMENT
p542
sg265
(lp543
VThe project shall maintain a hierarchical requirements structure consisting of System Requirements (SYS), Software Requirements (SRD), and Software Design Documents (SDD) with complete traceability between levels.\u000a
p544
asg268
V>>>\u000a
p545
sg35
I3099
sg36
I3332
sg37
g524
sg269
I01
sbag0
(g259
g2
Ntp546
Rp547
(dp548
g263
VRATIONALE
p549
sg265
(lp550
VHierarchical requirements structure enables proper decomposition of high-level system requirements into implementable design requirements, ensuring complete coverage and traceability throughout the development lifecycle.\u000a
p551
asg268
V>>>\u000a
p552
sg35
I3332
sg36
I3572
sg37
g524
sg269
I01
sbag0
(g259
g2
Ntp553
Rp554
(dp555
g263
VVERIFICATION_METHOD
p556
sg265
(lp557
VReview of requirements hierarchy documentation and traceability matrix showing complete coverage from system to design level requirements.\u000a
p558
asg268
V>>>\u000a
p559
sg35
I3572
sg36
I3740
sg37
g524
sg269
I01
sbag0
(g259
g2
Ntp560
Rp561
(dp562
g263
VITAR_CLASSIFICATION
p563
sg265
(lp564
VITAR CONTROLLED
p565
asg268
g29
sg35
I3740
sg36
I3777
sg37
g524
sg269
I00
sbag0
(g259
g2
Ntp566
Rp567
(dp568
g263
VEXPORT_CONTROL
p569
sg265
(lp570
VEAR99
p571
asg268
g29
sg35
I3777
sg36
I3799
sg37
g524
sg269
I00
sbag0
(g259
g2
Ntp572
Rp573
(dp574
g263
VSTATUS
p575
sg265
(lp576
VActive
p577
asg268
g29
sg35
I3799
sg36
I3814
sg37
g524
sg269
I00
sbasg113
(lp578
sg35
I3033
sg36
I3814
sg37
g254
sg335
I00
sg250
(lp579
sg337
I01
sg338
g527
sg339
g116
(tRp580
g264
(lp581
g529
asg536
(lp582
g534
asg542
(lp583
g540
asg549
(lp584
g547
asg556
(lp585
g554
asg563
(lp586
g561
asg569
(lp587
g567
asg575
(lp588
g573
assg349
I2
sg350
g353
sg356
g358
sg39
I92
sg237
I107
sg40
I1
sg238
I1
sg239
I3033
sg240
I3814
sg360
g0
(g361
g2
Ntp589
Rp590
(dp591
g365
V1.4
p592
sbsg367
g0
(g87
g88
Vaa3c723b5f0e4658bed2960a77fa8a6d
p593
tp594
Rp595
sg371
I00
sg372
Nsg373
Nsg374
I01
sg375
I00
sg376
I00
sbasVnode_type_close
p596
VSECTION
p597
sg35
I754
sg36
I3828
sg37
g4
sg335
I01
sg337
I01
sg338
g258
sg339
g116
(tRp598
g264
(lp599
g261
asg273
(lp600
g271
assg349
I1
sg350
g353
sg356
g358
sg39
I40
sg237
I109
sg40
I1
sg238
I1
sg239
I754
sg240
I3828
sg360
g0
(g361
g2
Ntp601
Rp602
(dp603
g365
V1
p604
sbsg367
g0
(g87
g88
Vece266241ce848ada801914b59e84d46
p605
tp606
Rp607
sg371
I00
sg372
Nsg373
Nsg374
I01
sg375
I01
sg376
I00
sbag0
(g252
g2
Ntp608
Rp609
(dp610
g256
VSECTION
p611
sg76
(lp612
g0
(g259
g2
Ntp613
Rp614
(dp615
g263
g264
sg265
(lp616
VRMS-ACC
p617
asg268
g29
sg35
I3841
sg36
I3854
sg37
g609
sg269
I00
sbag0
(g259
g2
Ntp618
Rp619
(dp620
g263
VTITLE
p621
sg265
(lp622
VAccess Control and Security
p623
asg268
g29
sg35
I3854
sg36
I3889
sg37
g609
sg269
I00
sbasg113
(lp624
sg250
(lp625
g0
(g278
g2
Ntp626
Rp627
(dp628
g256
VREQUIREMENT
p629
sg76
(lp630
g0
(g259
g2
Ntp631
Rp632
(dp633
g263
g264
sg265
(lp634
VRMS-005
p635
asg268
g29
sg35
I3904
sg36
I3917
sg37
g627
sg269
I00
sbag0
(g259
g2
Ntp636
Rp637
(dp638
g263
VTITLE
p639
sg265
(lp640
VAuthorized Personnel Access Control
p641
asg268
g29
sg35
I3917
sg36
I3960
sg37
g627
sg269
I00
sbag0
(g259
g2
Ntp642
Rp643
(dp644
g263
VSTATEMENT
p645
sg265
(lp646
VAccess to requirements documentation shall be restricted to authorized personnel who have completed ITAR training and have a valid need-to-know for the specific technical data.\u000a
p647
asg268
V>>>\u000a
p648
sg35
I3960
sg36
I4156
sg37
g627
sg269
I01
sbag0
(g259
g2
Ntp649
Rp650
(dp651
g263
VRATIONALE
p652
sg265
(lp653
VITAR regulations require strict access control to prevent unauthorized disclosure of controlled technical data. Only personnel with proper authorization and training may access ITAR-controlled information.\u000a
p654
asg268
V>>>\u000a
p655
sg35
I4156
sg36
I4381
sg37
g627
sg269
I01
sbag0
(g259
g2
Ntp656
Rp657
(dp658
g263
VVERIFICATION_METHOD
p659
sg265
(lp660
VReview of access control logs, personnel training records, and authorization documentation for all individuals with access to requirements documentation.\u000a
p661
asg268
V>>>\u000a
p662
sg35
I4381
sg36
I4564
sg37
g627
sg269
I01
sbag0
(g259
g2
Ntp663
Rp664
(dp665
g263
VITAR_CLASSIFICATION
p666
sg265
(lp667
VITAR CONTROLLED
p668
asg268
g29
sg35
I4564
sg36
I4601
sg37
g627
sg269
I00
sbag0
(g259
g2
Ntp669
Rp670
(dp671
g263
VEXPORT_CONTROL
p672
sg265
(lp673
VEAR99
p674
asg268
g29
sg35
I4601
sg36
I4623
sg37
g627
sg269
I00
sbag0
(g259
g2
Ntp675
Rp676
(dp677
g263
VSTATUS
p678
sg265
(lp679
VActive
p680
asg268
g29
sg35
I4623
sg36
I4638
sg37
g627
sg269
I00
sbasg113
(lp681
sg35
I3890
sg36
I4638
sg37
g609
sg335
I00
sg250
(lp682
sg337
I01
sg338
g630
sg339
g116
(tRp683
g264
(lp684
g632
asg639
(lp685
g637
asg645
(lp686
g643
asg652
(lp687
g650
asg659
(lp688
g657
asg666
(lp689
g664
asg672
(lp690
g670
asg678
(lp691
g676
assg349
I2
sg350
g353
sg356
g358
sg39
I114
sg237
I129
sg40
I1
sg238
I1
sg239
I3890
sg240
I4638
sg360
g0
(g361
g2
Ntp692
Rp693
(dp694
g365
V2.1
p695
sbsg367
g0
(g87
g88
Vb2715842af9e45e996a9687a3e27a709
p696
tp697
Rp698
sg371
I00
sg372
Nsg373
Nsg374
I01
sg375
I00
sg376
I00
sbag0
(g278
g2
Ntp699
Rp700
(dp701
g256
VREQUIREMENT
p702
sg76
(lp703
g0
(g259
g2
Ntp704
Rp705
(dp706
g263
g264
sg265
(lp707
VRMS-006
p708
asg268
g29
sg35
I4653
sg36
I4666
sg37
g700
sg269
I00
sbag0
(g259
g2
Ntp709
Rp710
(dp711
g263
VTITLE
p712
sg265
(lp713
VAudit Trail Maintenance
p714
asg268
g29
sg35
I4666
sg36
I4697
sg37
g700
sg269
I00
sbag0
(g259
g2
Ntp715
Rp716
(dp717
g263
VSTATEMENT
p718
sg265
(lp719
VAll changes to requirements documentation shall be logged with timestamp, user identification, and change description to maintain a complete audit trail for ITAR compliance.\u000a
p720
asg268
V>>>\u000a
p721
sg35
I4697
sg36
I4890
sg37
g700
sg269
I01
sbag0
(g259
g2
Ntp722
Rp723
(dp724
g263
VRATIONALE
p725
sg265
(lp726
VITAR regulations require maintenance of audit trails to demonstrate compliance with export control requirements and to track all access and modifications to controlled technical data.\u000a
p727
asg268
V>>>\u000a
p728
sg35
I4890
sg36
I5093
sg37
g700
sg269
I01
sbag0
(g259
g2
Ntp729
Rp730
(dp731
g263
VVERIFICATION_METHOD
p732
sg265
(lp733
VReview of version control system logs and audit trail reports demonstrating complete change tracking for all requirements modifications.\u000a
p734
asg268
V>>>\u000a
p735
sg35
I5093
sg36
I5259
sg37
g700
sg269
I01
sbag0
(g259
g2
Ntp736
Rp737
(dp738
g263
VITAR_CLASSIFICATION
p739
sg265
(lp740
VITAR CONTROLLED
p741
asg268
g29
sg35
I5259
sg36
I5296
sg37
g700
sg269
I00
sbag0
(g259
g2
Ntp742
Rp743
(dp744
g263
VEXPORT_CONTROL
p745
sg265
(lp746
VEAR99
p747
asg268
g29
sg35
I5296
sg36
I5318
sg37
g700
sg269
I00
sbag0
(g259
g2
Ntp748
Rp749
(dp750
g263
VSTATUS
p751
sg265
(lp752
VActive
p753
asg268
g29
sg35
I5318
sg36
I5333
sg37
g700
sg269
I00
sbasg113
(lp754
sg35
I4639
sg36
I5333
sg37
g609
sg335
I00
sg250
(lp755
sg337
I01
sg338
g703
sg339
g116
(tRp756
g264
(lp757
g705
asg712
(lp758
g710
asg718
(lp759
g716
asg725
(lp760
g723
asg732
(lp761
g730
asg739
(lp762
g737
asg745
(lp763
g743
asg751
(lp764
g749
assg349
I2
sg350
g353
sg356
g358
sg39
I130
sg237
I145
sg40
I1
sg238
I1
sg239
I4639
sg240
I5333
sg360
g0
(g361
g2
Ntp765
Rp766
(dp767
g365
V2.2
p768
sbsg367
g0
(g87
g88
Vc7ca7f3f64034ca9983bd6484fe655c2
p769
tp770
Rp771
sg371
I00
sg372
Nsg373
Nsg374
I01
sg375
I00
sg376
I00
sbag0
(g278
g2
Ntp772
Rp773
(dp774
g256
VREQUIREMENT
p775
sg76
(lp776
g0
(g259
g2
Ntp777
Rp778
(dp779
g263
g264
sg265
(lp780
VRMS-007
p781
asg268
g29
sg35
I5348
sg36
I5361
sg37
g773
sg269
I00
sbag0
(g259
g2
Ntp782
Rp783
(dp784
g263
VTITLE
p785
sg265
(lp786
VExport Control Markings
p787
asg268
g29
sg35
I5361
sg36
I5392
sg37
g773
sg269
I00
sbag0
(g259
g2
Ntp788
Rp789
(dp790
g263
VSTATEMENT
p791
sg265
(lp792
VAll requirements documents shall be marked with appropriate ITAR classification, export control markings, and handling instructions in accordance with Department of State regulations.\u000a
p793
asg268
V>>>\u000a
p794
sg35
I5392
sg36
I5595
sg37
g773
sg269
I01
sbag0
(g259
g2
Ntp795
Rp796
(dp797
g263
VRATIONALE
p798
sg265
(lp799
VProper marking of controlled technical data is required by ITAR to ensure personnel understand the sensitivity and handling requirements of the information.\u000a
p800
asg268
V>>>\u000a
p801
sg35
I5595
sg36
I5771
sg37
g773
sg269
I01
sbag0
(g259
g2
Ntp802
Rp803
(dp804
g263
VVERIFICATION_METHOD
p805
sg265
(lp806
VReview of all requirements documents for presence of required ITAR classification markings and export control notices.\u000a
p807
asg268
V>>>\u000a
p808
sg35
I5771
sg36
I5919
sg37
g773
sg269
I01
sbag0
(g259
g2
Ntp809
Rp810
(dp811
g263
VITAR_CLASSIFICATION
p812
sg265
(lp813
VITAR CONTROLLED
p814
asg268
g29
sg35
I5919
sg36
I5956
sg37
g773
sg269
I00
sbag0
(g259
g2
Ntp815
Rp816
(dp817
g263
VEXPORT_CONTROL
p818
sg265
(lp819
VEAR99
p820
asg268
g29
sg35
I5956
sg36
I5978
sg37
g773
sg269
I00
sbag0
(g259
g2
Ntp821
Rp822
(dp823
g263
VSTATUS
p824
sg265
(lp825
VActive
p826
asg268
g29
sg35
I5978
sg36
I5993
sg37
g773
sg269
I00
sbasg113
(lp827
sg35
I5334
sg36
I5993
sg37
g609
sg335
I00
sg250
(lp828
sg337
I01
sg338
g776
sg339
g116
(tRp829
g264
(lp830
g778
asg785
(lp831
g783
asg791
(lp832
g789
asg798
(lp833
g796
asg805
(lp834
g803
asg812
(lp835
g810
asg818
(lp836
g816
asg824
(lp837
g822
assg349
I2
sg350
g353
sg356
g358
sg39
I146
sg237
I161
sg40
I1
sg238
I1
sg239
I5334
sg240
I5993
sg360
g0
(g361
g2
Ntp838
Rp839
(dp840
g365
V2.3
p841
sbsg367
g0
(g87
g88
Vcf525f283fb0402187572f7af68c46b9
p842
tp843
Rp844
sg371
I00
sg372
Nsg373
Nsg374
I01
sg375
I00
sg376
I00
sbasg596
VSECTION
p845
sg35
I3829
sg36
I6007
sg37
g4
sg335
I01
sg337
I01
sg338
g612
sg339
g116
(tRp846
g264
(lp847
g614
asg621
(lp848
g619
assg349
I1
sg350
g353
sg356
g358
sg39
I110
sg237
I163
sg40
I1
sg238
I1
sg239
I3829
sg240
I6007
sg360
g0
(g361
g2
Ntp849
Rp850
(dp851
g365
V2
p852
sbsg367
g0
(g87
g88
V87b54b1b7084421b8459731c87f4e90e
p853
tp854
Rp855
sg371
I00
sg372
Nsg373
Nsg374
I01
sg375
I01
sg376
I00
sbag0
(g252
g2
Ntp856
Rp857
(dp858
g256
VSECTION
p859
sg76
(lp860
g0
(g259
g2
Ntp861
Rp862
(dp863
g263
g264
sg265
(lp864
VRMS-LIF
p865
asg268
g29
sg35
I6020
sg36
I6033
sg37
g857
sg269
I00
sbag0
(g259
g2
Ntp866
Rp867
(dp868
g263
VTITLE
p869
sg265
(lp870
VRequirements Lifecycle Management
p871
asg268
g29
sg35
I6033
sg36
I6074
sg37
g857
sg269
I00
sbasg113
(lp872
sg250
(lp873
g0
(g278
g2
Ntp874
Rp875
(dp876
g256
VREQUIREMENT
p877
sg76
(lp878
g0
(g259
g2
Ntp879
Rp880
(dp881
g263
g264
sg265
(lp882
VRMS-008
p883
asg268
g29
sg35
I6089
sg36
I6102
sg37
g875
sg269
I00
sbag0
(g259
g2
Ntp884
Rp885
(dp886
g263
VTITLE
p887
sg265
(lp888
VRequirements Review Process
p889
asg268
g29
sg35
I6102
sg36
I6137
sg37
g875
sg269
I00
sbag0
(g259
g2
Ntp890
Rp891
(dp892
g263
VSTATEMENT
p893
sg265
(lp894
VAll requirements shall undergo formal review and approval processes before being baselined, including technical review, security review, and program management approval.\u000a
p895
asg268
V>>>\u000a
p896
sg35
I6137
sg36
I6326
sg37
g875
sg269
I01
sbag0
(g259
g2
Ntp897
Rp898
(dp899
g263
VRATIONALE
p900
sg265
(lp901
VFormal review processes ensure requirements are technically sound, properly classified, and aligned with program objectives before committing resources to implementation.\u000a
p902
asg268
V>>>\u000a
p903
sg35
I6326
sg36
I6516
sg37
g875
sg269
I01
sbag0
(g259
g2
Ntp904
Rp905
(dp906
g263
VVERIFICATION_METHOD
p907
sg265
(lp908
VReview of requirements review records and approval documentation for all baselined requirements.\u000a
p909
asg268
V>>>\u000a
p910
sg35
I6516
sg36
I6642
sg37
g875
sg269
I01
sbag0
(g259
g2
Ntp911
Rp912
(dp913
g263
VITAR_CLASSIFICATION
p914
sg265
(lp915
VITAR CONTROLLED
p916
asg268
g29
sg35
I6642
sg36
I6679
sg37
g875
sg269
I00
sbag0
(g259
g2
Ntp917
Rp918
(dp919
g263
VEXPORT_CONTROL
p920
sg265
(lp921
VEAR99
p922
asg268
g29
sg35
I6679
sg36
I6701
sg37
g875
sg269
I00
sbag0
(g259
g2
Ntp923
Rp924
(dp925
g263
VSTATUS
p926
sg265
(lp927
VActive
p928
asg268
g29
sg35
I6701
sg36
I6716
sg37
g875
sg269
I00
sbasg113
(lp929
sg35
I6075
sg36
I6716
sg37
g857
sg335
I00
sg250
(lp930
sg337
I01
sg338
g878
sg339
g116
(tRp931
g264
(lp932
g880
asg887
(lp933
g885
asg893
(lp934
g891
asg900
(lp935
g898
asg907
(lp936
g905
asg914
(lp937
g912
asg920
(lp938
g918
asg926
(lp939
g924
assg349
I2
sg350
g353
sg356
g358
sg39
I168
sg237
I183
sg40
I1
sg238
I1
sg239
I6075
sg240
I6716
sg360
g0
(g361
g2
Ntp940
Rp941
(dp942
g365
V3.1
p943
sbsg367
g0
(g87
g88
Va15af5d0a4d049c594d61f2469a7dcbc
p944
tp945
Rp946
sg371
I00
sg372
Nsg373
Nsg374
I01
sg375
I00
sg376
I00
sbag0
(g278
g2
Ntp947
Rp948
(dp949
g256
VREQUIREMENT
p950
sg76
(lp951
g0
(g259
g2
Ntp952
Rp953
(dp954
g263
g264
sg265
(lp955
VRMS-009
p956
asg268
g29
sg35
I6731
sg36
I6744
sg37
g948
sg269
I00
sbag0
(g259
g2
Ntp957
Rp958
(dp959
g263
VTITLE
p960
sg265
(lp961
VRequirements Change Management
p962
asg268
g29
sg35
I6744
sg36
I6782
sg37
g948
sg269
I00
sbag0
(g259
g2
Ntp963
Rp964
(dp965
g263
VSTATEMENT
p966
sg265
(lp967
VAll changes to baselined requirements shall be processed through a formal change control process including impact analysis, approval, and traceability updates.\u000a
p968
asg268
V>>>\u000a
p969
sg35
I6782
sg36
I6961
sg37
g948
sg269
I01
sbag0
(g259
g2
Ntp970
Rp971
(dp972
g263
VRATIONALE
p973
sg265
(lp974
VChange control processes ensure that modifications to baselined requirements are properly evaluated for technical impact, security implications, and programmatic consequences before implementation.\u000a
p975
asg268
V>>>\u000a
p976
sg35
I6961
sg36
I7178
sg37
g948
sg269
I01
sbag0
(g259
g2
Ntp977
Rp978
(dp979
g263
VVERIFICATION_METHOD
p980
sg265
(lp981
VReview of change control records and impact analysis documentation for all requirements modifications.\u000a
p982
asg268
V>>>\u000a
p983
sg35
I7178
sg36
I7310
sg37
g948
sg269
I01
sbag0
(g259
g2
Ntp984
Rp985
(dp986
g263
VITAR_CLASSIFICATION
p987
sg265
(lp988
VITAR CONTROLLED
p989
asg268
g29
sg35
I7310
sg36
I7347
sg37
g948
sg269
I00
sbag0
(g259
g2
Ntp990
Rp991
(dp992
g263
VEXPORT_CONTROL
p993
sg265
(lp994
VEAR99
p995
asg268
g29
sg35
I7347
sg36
I7369
sg37
g948
sg269
I00
sbag0
(g259
g2
Ntp996
Rp997
(dp998
g263
VSTATUS
p999
sg265
(lp1000
VActive
p1001
asg268
g29
sg35
I7369
sg36
I7384
sg37
g948
sg269
I00
sbasg113
(lp1002
sg35
I6717
sg36
I7384
sg37
g857
sg335
I00
sg250
(lp1003
sg337
I01
sg338
g951
sg339
g116
(tRp1004
g264
(lp1005
g953
asg960
(lp1006
g958
asg966
(lp1007
g964
asg973
(lp1008
g971
asg980
(lp1009
g978
asg987
(lp1010
g985
asg993
(lp1011
g991
asg999
(lp1012
g997
assg349
I2
sg350
g353
sg356
g358
sg39
I184
sg237
I199
sg40
I1
sg238
I1
sg239
I6717
sg240
I7384
sg360
g0
(g361
g2
Ntp1013
Rp1014
(dp1015
g365
V3.2
p1016
sbsg367
g0
(g87
g88
V082cd50632274eb0b40fcc15d3339f88
p1017
tp1018
Rp1019
sg371
I00
sg372
Nsg373
Nsg374
I01
sg375
I00
sg376
I00
sbag0
(g278
g2
Ntp1020
Rp1021
(dp1022
g256
VREQUIREMENT
p1023
sg76
(lp1024
g0
(g259
g2
Ntp1025
Rp1026
(dp1027
g263
g264
sg265
(lp1028
VRMS-010
p1029
asg268
g29
sg35
I7399
sg36
I7412
sg37
g1021
sg269
I00
sbag0
(g259
g2
Ntp1030
Rp1031
(dp1032
g263
VTITLE
p1033
sg265
(lp1034
VRequirements Traceability
p1035
asg268
g29
sg35
I7412
sg36
I7445
sg37
g1021
sg269
I00
sbag0
(g259
g2
Ntp1036
Rp1037
(dp1038
g263
VSTATEMENT
p1039
sg265
(lp1040
VThe requirements management system shall maintain complete bidirectional traceability between system requirements, software requirements, design requirements, implementation, and verification artifacts.\u000a
p1041
asg268
V>>>\u000a
p1042
sg35
I7445
sg36
I7667
sg37
g1021
sg269
I01
sbag0
(g259
g2
Ntp1043
Rp1044
(dp1045
g263
VRATIONALE
p1046
sg265
(lp1047
VComplete traceability enables impact analysis, verification coverage assessment, and compliance demonstration required for aerospace and military systems development.\u000a
p1048
asg268
V>>>\u000a
p1049
sg35
I7667
sg36
I7853
sg37
g1021
sg269
I01
sbag0
(g259
g2
Ntp1050
Rp1051
(dp1052
g263
VVERIFICATION_METHOD
p1053
sg265
(lp1054
VReview of traceability matrices and automated traceability reports demonstrating complete coverage from system requirements through verification artifacts.\u000a
p1055
asg268
V>>>\u000a
p1056
sg35
I7853
sg36
I8038
sg37
g1021
sg269
I01
sbag0
(g259
g2
Ntp1057
Rp1058
(dp1059
g263
VITAR_CLASSIFICATION
p1060
sg265
(lp1061
VITAR CONTROLLED
p1062
asg268
g29
sg35
I8038
sg36
I8075
sg37
g1021
sg269
I00
sbag0
(g259
g2
Ntp1063
Rp1064
(dp1065
g263
VEXPORT_CONTROL
p1066
sg265
(lp1067
VEAR99
p1068
asg268
g29
sg35
I8075
sg36
I8097
sg37
g1021
sg269
I00
sbag0
(g259
g2
Ntp1069
Rp1070
(dp1071
g263
VSTATUS
p1072
sg265
(lp1073
VActive
p1074
asg268
g29
sg35
I8097
sg36
I8112
sg37
g1021
sg269
I00
sbasg113
(lp1075
sg35
I7385
sg36
I8112
sg37
g857
sg335
I00
sg250
(lp1076
sg337
I01
sg338
g1024
sg339
g116
(tRp1077
g264
(lp1078
g1026
asg1033
(lp1079
g1031
asg1039
(lp1080
g1037
asg1046
(lp1081
g1044
asg1053
(lp1082
g1051
asg1060
(lp1083
g1058
asg1066
(lp1084
g1064
asg1072
(lp1085
g1070
assg349
I2
sg350
g353
sg356
g358
sg39
I200
sg237
I215
sg40
I1
sg238
I1
sg239
I7385
sg240
I8112
sg360
g0
(g361
g2
Ntp1086
Rp1087
(dp1088
g365
V3.3
p1089
sbsg367
g0
(g87
g88
V4b2c183b69974fa3b1c1af98020bf156
p1090
tp1091
Rp1092
sg371
I00
sg372
Nsg373
Nsg374
I01
sg375
I00
sg376
I00
sbasg596
VSECTION
p1093
sg35
I6008
sg36
I8126
sg37
g4
sg335
I01
sg337
I01
sg338
g860
sg339
g116
(tRp1094
g264
(lp1095
g862
asg869
(lp1096
g867
assg349
I1
sg350
g353
sg356
g358
sg39
I164
sg237
I217
sg40
I1
sg238
I1
sg239
I6008
sg240
I8126
sg360
g0
(g361
g2
Ntp1097
Rp1098
(dp1099
g365
V3
p1100
sbsg367
g0
(g87
g88
V46cb3267795248b68b272751196f2eb5
p1101
tp1102
Rp1103
sg371
I00
sg372
Nsg373
Nsg374
I01
sg375
I01
sg376
I00
sbag0
(g252
g2
Ntp1104
Rp1105
(dp1106
g256
VSECTION
p1107
sg76
(lp1108
g0
(g259
g2
Ntp1109
Rp1110
(dp1111
g263
g264
sg265
(lp1112
VRMS-ROL
p1113
asg268
g29
sg35
I8139
sg36
I8152
sg37
g1105
sg269
I00
sbag0
(g259
g2
Ntp1114
Rp1115
(dp1116
g263
VTITLE
p1117
sg265
(lp1118
VRoles and Responsibilities
p1119
asg268
g29
sg35
I8152
sg36
I8186
sg37
g1105
sg269
I00
sbasg113
(lp1120
sg250
(lp1121
g0
(g278
g2
Ntp1122
Rp1123
(dp1124
g256
VREQUIREMENT
p1125
sg76
(lp1126
g0
(g259
g2
Ntp1127
Rp1128
(dp1129
g263
g264
sg265
(lp1130
VRMS-011
p1131
asg268
g29
sg35
I8201
sg36
I8214
sg37
g1123
sg269
I00
sbag0
(g259
g2
Ntp1132
Rp1133
(dp1134
g263
VTITLE
p1135
sg265
(lp1136
VRequirements Management Authority
p1137
asg268
g29
sg35
I8214
sg36
I8255
sg37
g1123
sg269
I00
sbag0
(g259
g2
Ntp1138
Rp1139
(dp1140
g263
VSTATEMENT
p1141
sg265
(lp1142
VThe project shall designate a Requirements Management Authority responsible for overseeing requirements management processes, tool configuration, and compliance with ITAR regulations.\u000a
p1143
asg268
V>>>\u000a
p1144
sg35
I8255
sg36
I8458
sg37
g1123
sg269
I01
sbag0
(g259
g2
Ntp1145
Rp1146
(dp1147
g263
VRATIONALE
p1148
sg265
(lp1149
VDesignated authority ensures consistent application of requirements management processes and provides expert oversight for tool usage and compliance.\u000a
p1150
asg268
V>>>\u000a
p1151
sg35
I8458
sg36
I8627
sg37
g1123
sg269
I01
sbag0
(g259
g2
Ntp1152
Rp1153
(dp1154
g263
VVERIFICATION_METHOD
p1155
sg265
(lp1156
VReview of organizational chart and job descriptions identifying the Requirements Management Authority role and responsibilities.\u000a
p1157
asg268
V>>>\u000a
p1158
sg35
I8627
sg36
I8785
sg37
g1123
sg269
I01
sbag0
(g259
g2
Ntp1159
Rp1160
(dp1161
g263
VITAR_CLASSIFICATION
p1162
sg265
(lp1163
VITAR CONTROLLED
p1164
asg268
g29
sg35
I8785
sg36
I8822
sg37
g1123
sg269
I00
sbag0
(g259
g2
Ntp1165
Rp1166
(dp1167
g263
VEXPORT_CONTROL
p1168
sg265
(lp1169
VEAR99
p1170
asg268
g29
sg35
I8822
sg36
I8844
sg37
g1123
sg269
I00
sbag0
(g259
g2
Ntp1171
Rp1172
(dp1173
g263
VSTATUS
p1174
sg265
(lp1175
VActive
p1176
asg268
g29
sg35
I8844
sg36
I8859
sg37
g1123
sg269
I00
sbasg113
(lp1177
sg35
I8187
sg36
I8859
sg37
g1105
sg335
I00
sg250
(lp1178
sg337
I01
sg338
g1126
sg339
g116
(tRp1179
g264
(lp1180
g1128
asg1135
(lp1181
g1133
asg1141
(lp1182
g1139
asg1148
(lp1183
g1146
asg1155
(lp1184
g1153
asg1162
(lp1185
g1160
asg1168
(lp1186
g1166
asg1174
(lp1187
g1172
assg349
I2
sg350
g353
sg356
g358
sg39
I222
sg237
I237
sg40
I1
sg238
I1
sg239
I8187
sg240
I8859
sg360
g0
(g361
g2
Ntp1188
Rp1189
(dp1190
g365
V4.1
p1191
sbsg367
g0
(g87
g88
V9f1baf1773a84f81a64a0d9b7b22a010
p1192
tp1193
Rp1194
sg371
I00
sg372
Nsg373
Nsg374
I01
sg375
I00
sg376
I00
sbag0
(g278
g2
Ntp1195
Rp1196
(dp1197
g256
VREQUIREMENT
p1198
sg76
(lp1199
g0
(g259
g2
Ntp1200
Rp1201
(dp1202
g263
g264
sg265
(lp1203
VRMS-012
p1204
asg268
g29
sg35
I8874
sg36
I8887
sg37
g1196
sg269
I00
sbag0
(g259
g2
Ntp1205
Rp1206
(dp1207
g263
VTITLE
p1208
sg265
(lp1209
VRequirements Author Responsibilities
p1210
asg268
g29
sg35
I8887
sg36
I8931
sg37
g1196
sg269
I00
sbag0
(g259
g2
Ntp1211
Rp1212
(dp1213
g263
VSTATEMENT
p1214
sg265
(lp1215
VRequirements authors shall be responsible for creating properly formatted requirements with complete attributes, maintaining traceability links, and ensuring requirements comply with ITAR classification requirements.\u000a
p1216
asg268
V>>>\u000a
p1217
sg35
I8931
sg36
I9167
sg37
g1196
sg269
I01
sbag0
(g259
g2
Ntp1218
Rp1219
(dp1220
g263
VRATIONALE
p1221
sg265
(lp1222
VClear assignment of responsibilities ensures requirements are created with necessary detail and compliance attributes from initial creation.\u000a
p1223
asg268
V>>>\u000a
p1224
sg35
I9167
sg36
I9327
sg37
g1196
sg269
I01
sbag0
(g259
g2
Ntp1225
Rp1226
(dp1227
g263
VVERIFICATION_METHOD
p1228
sg265
(lp1229
VReview of requirements documentation demonstrating proper formatting and completeness of requirements authored by assigned personnel.\u000a
p1230
asg268
V>>>\u000a
p1231
sg35
I9327
sg36
I9490
sg37
g1196
sg269
I01
sbag0
(g259
g2
Ntp1232
Rp1233
(dp1234
g263
VITAR_CLASSIFICATION
p1235
sg265
(lp1236
VITAR CONTROLLED
p1237
asg268
g29
sg35
I9490
sg36
I9527
sg37
g1196
sg269
I00
sbag0
(g259
g2
Ntp1238
Rp1239
(dp1240
g263
VEXPORT_CONTROL
p1241
sg265
(lp1242
VEAR99
p1243
asg268
g29
sg35
I9527
sg36
I9549
sg37
g1196
sg269
I00
sbag0
(g259
g2
Ntp1244
Rp1245
(dp1246
g263
VSTATUS
p1247
sg265
(lp1248
VActive
p1249
asg268
g29
sg35
I9549
sg36
I9564
sg37
g1196
sg269
I00
sbasg113
(lp1250
sg35
I8860
sg36
I9564
sg37
g1105
sg335
I00
sg250
(lp1251
sg337
I01
sg338
g1199
sg339
g116
(tRp1252
g264
(lp1253
g1201
asg1208
(lp1254
g1206
asg1214
(lp1255
g1212
asg1221
(lp1256
g1219
asg1228
(lp1257
g1226
asg1235
(lp1258
g1233
asg1241
(lp1259
g1239
asg1247
(lp1260
g1245
assg349
I2
sg350
g353
sg356
g358
sg39
I238
sg237
I253
sg40
I1
sg238
I1
sg239
I8860
sg240
I9564
sg360
g0
(g361
g2
Ntp1261
Rp1262
(dp1263
g365
V4.2
p1264
sbsg367
g0
(g87
g88
Vea0ee14f2853485f964a51516f2fbd13
p1265
tp1266
Rp1267
sg371
I00
sg372
Nsg373
Nsg374
I01
sg375
I00
sg376
I00
sbasg596
VSECTION
p1268
sg35
I8127
sg36
I9578
sg37
g4
sg335
I01
sg337
I01
sg338
g1108
sg339
g116
(tRp1269
g264
(lp1270
g1110
asg1117
(lp1271
g1115
assg349
I1
sg350
g353
sg356
g358
sg39
I218
sg237
I255
sg40
I1
sg238
I1
sg239
I8127
sg240
I9578
sg360
g0
(g361
g2
Ntp1272
Rp1273
(dp1274
g365
V4
p1275
sbsg367
g0
(g87
g88
V250b77c60e2d4d7d8e2793e941126db6
p1276
tp1277
Rp1278
sg371
I00
sg372
Nsg373
Nsg374
I01
sg375
I01
sg376
I00
sbasg35
I0
sg36
I9578
sV_tx_filename
p1279
V/projects/rosetta-requirements/docs/requirements/RMS.sdoc
p1280
sV_tx_metamodel
p1281
NsV_tx_model_params
p1282
NsV_tx_parser
p1283
NsVreserved_title
p1284
g8
sVis_bundle_document
p1285
I00
sVfragments_from_files
p1286
(lp1287
sg349
I0
sg375
I01
sVmeta
p1288
Nsg367
g0
(g87
g88
V3be40e6f07fc40d78d762183a5cc5f1b
p1289
tp1290
Rp1291
sg371
I00
sVincluded_documents
p1292
(lp1293
sg360
g0
(cstrictdoc.backend.sdoc.models.document
SDocDocumentContext
p1294
g2
Ntp1295
Rp1296
(dp1297
g365
Nsbsg356
g358
sVng_including_document_from_file
p1298
Nsg374
I01
sVsearch_index
p1299
g0
(cstrictdoc.backend.sdoc.models.document
SDocDocumentSearchIndex
p1300
g2
Ntp1301
Rp1302
(dp1303
Vdocument_index
p1304
ccollections
defaultdict
p1305
(g243
tp1306
Rp1307
Vrms-gen
p1308
g243
((lp1309
Vece266241ce848ada801914b59e84d46
p1310
atp1311
Rp1312
sVr
p1313
g243
((lp1314
g370
ag698
ag449
ag771
ag1103
ag946
ag1194
ag855
ag1278
ag1019
ag522
ag1092
ag844
ag595
ag1267
ag607
atp1315
Rp1316
sVrm
p1317
g243
((lp1318
g370
ag698
ag449
ag771
ag1103
ag946
ag1194
ag855
ag1278
ag1019
ag522
ag1092
ag844
ag595
ag1267
ag607
atp1319
Rp1320
sVms-gen
p1321
g243
((lp1322
g607
atp1323
Rp1324
sVrms
p1325
g243
((lp1326
g370
ag698
ag449
ag771
ag1103
ag946
ag1194
ag855
ag1278
ag1019
ag522
ag1092
ag844
ag595
ag1267
ag607
atp1327
Rp1328
sVs-gen
p1329
g243
((lp1330
g607
atp1331
Rp1332
sVrms-
p1333
g243
((lp1334
g370
ag698
ag449
ag771
ag1103
ag946
ag1194
ag855
ag1278
ag1019
ag522
ag1092
ag844
ag595
ag1267
ag607
atp1335
Rp1336
sV-gen
p1337
g243
((lp1338
g607
atp1339
Rp1340
sVrms-g
p1341
g243
((lp1342
g607
atp1343
Rp1344
sVgen
p1345
g243
((lp1346
g607
atp1347
Rp1348
sVrms-ge
p1349
g243
((lp1350
g607
atp1351
Rp1352
sVen
p1353
g243
((lp1354
g370
ag449
ag946
ag1194
ag1019
ag1092
ag844
ag595
ag1267
ag607
atp1355
Rp1356
sVn
p1357
g243
((lp1358
g370
ag698
ag449
ag771
ag946
ag1194
ag1019
ag522
ag1092
ag844
ag595
ag1267
ag607
atp1359
Rp1360
sVrequirements
p1361
g243
((lp1362
Vdcc0e1c931c54fc6b270c583a5645de2
p1363
aVb2715842af9e45e996a9687a3e27a709
p1364
aV74dd17d0bab34ea2ba20612c3b1507eb
p1365
aVc7ca7f3f64034ca9983bd6484fe655c2
p1366
aV46cb3267795248b68b272751196f2eb5
p1367
aVa15af5d0a4d049c594d61f2469a7dcbc
p1368
aV9f1baf1773a84f81a64a0d9b7b22a010
p1369
aV082cd50632274eb0b40fcc15d3339f88
p1370
aV755951b2b64948b4a6ded24d1317f132
p1371
aV4b2c183b69974fa3b1c1af98020bf156
p1372
aVcf525f283fb0402187572f7af68c46b9
p1373
aVaa3c723b5f0e4658bed2960a77fa8a6d
p1374
aVea0ee14f2853485f964a51516f2fbd13
p1375
aVece266241ce848ada801914b59e84d46
p1376
atp1377
Rp1378
sVre
p1379
g243
((lp1380
g370
ag698
ag449
ag771
ag1103
ag946
ag1194
ag1278
ag1019
ag522
ag1092
ag844
ag595
ag1267
ag607
atp1381
Rp1382
sVequirements
p1383
g243
((lp1384
g370
ag698
ag449
ag771
ag1103
ag946
ag1194
ag1019
ag522
ag1092
ag844
ag595
ag1267
ag607
atp1385
Rp1386
sVreq
p1387
g243
((lp1388
g370
ag698
ag449
ag771
ag1103
ag946
ag1194
ag1019
ag522
ag1092
ag844
ag595
ag1267
ag607
atp1389
Rp1390
sVquirements
p1391
g243
((lp1392
g370
ag698
ag449
ag771
ag1103
ag946
ag1194
ag1019
ag522
ag1092
ag844
ag595
ag1267
ag607
atp1393
Rp1394
sVrequ
p1395
g243
((lp1396
g370
ag698
ag449
ag771
ag1103
ag946
ag1194
ag1019
ag522
ag1092
ag844
ag595
ag1267
ag607
atp1397
Rp1398
sVuirements
p1399
g243
((lp1400
g370
ag698
ag449
ag771
ag1103
ag946
ag1194
ag1019
ag522
ag1092
ag844
ag595
ag1267
ag607
atp1401
Rp1402
sVrequi
p1403
g243
((lp1404
g370
ag698
ag449
ag771
ag1103
ag946
ag1194
ag1019
ag522
ag1092
ag844
ag595
ag1267
ag607
atp1405
Rp1406
sVirements
p1407
g243
((lp1408
g370
ag698
ag449
ag771
ag1103
ag946
ag1194
ag1019
ag522
ag1092
ag844
ag595
ag1267
ag607
atp1409
Rp1410
sVrequir
p1411
g243
((lp1412
g370
ag698
ag449
ag771
ag1103
ag946
ag1194
ag1019
ag522
ag1092
ag844
ag595
ag1267
ag607
atp1413
Rp1414
sVrements
p1415
g243
((lp1416
g370
ag698
ag449
ag771
ag1103
ag946
ag1194
ag1019
ag522
ag1092
ag844
ag595
ag1267
ag607
atp1417
Rp1418
sVrequire
p1419
g243
((lp1420
g370
ag698
ag449
ag771
ag1103
ag946
ag1194
ag1019
ag522
ag1092
ag844
ag595
ag1267
ag607
atp1421
Rp1422
sVements
p1423
g243
((lp1424
g370
ag698
ag449
ag771
ag1103
ag946
ag1194
ag1019
ag522
ag1092
ag844
ag595
ag1267
ag607
atp1425
Rp1426
sVrequirem
p1427
g243
((lp1428
g370
ag698
ag449
ag771
ag1103
ag946
ag1194
ag1019
ag522
ag1092
ag844
ag595
ag1267
ag607
atp1429
Rp1430
sVments
p1431
g243
((lp1432
g370
ag698
ag449
ag771
ag1103
ag946
ag1194
ag1019
ag522
ag1092
ag844
ag595
ag1267
ag607
atp1433
Rp1434
sVrequireme
p1435
g243
((lp1436
g370
ag698
ag449
ag771
ag1103
ag946
ag1194
ag1019
ag522
ag1092
ag844
ag595
ag1267
ag607
atp1437
Rp1438
sVents
p1439
g243
((lp1440
g370
ag698
ag449
ag771
ag1103
ag946
ag1194
ag1019
ag522
ag1092
ag844
ag595
ag1267
ag607
atp1441
Rp1442
sVrequiremen
p1443
g243
((lp1444
g370
ag698
ag449
ag771
ag1103
ag946
ag1194
ag1019
ag522
ag1092
ag844
ag595
ag1267
ag607
atp1445
Rp1446
sVnts
p1447
g243
((lp1448
g370
ag698
ag449
ag771
ag1103
ag946
ag1194
ag1019
ag522
ag1092
ag844
ag595
ag1267
ag607
atp1449
Rp1450
sVrequirement
p1451
g243
((lp1452
g370
ag698
ag449
ag771
ag1103
ag946
ag1194
ag1019
ag522
ag1092
ag844
ag595
ag1267
ag607
atp1453
Rp1454
sVts
p1455
g243
((lp1456
g370
ag698
ag449
ag771
ag1103
ag946
ag1194
ag1019
ag522
ag1092
ag844
ag595
ag1267
ag607
atp1457
Rp1458
sVs
p1459
g243
((lp1460
g370
ag698
ag449
ag771
ag1103
ag946
ag1194
ag855
ag1278
ag1019
ag522
ag1092
ag844
ag595
ag1267
ag607
atp1461
Rp1462
sVmanagement
p1463
g243
((lp1464
Vdcc0e1c931c54fc6b270c583a5645de2
p1465
aV74dd17d0bab34ea2ba20612c3b1507eb
p1466
aV46cb3267795248b68b272751196f2eb5
p1467
aVa15af5d0a4d049c594d61f2469a7dcbc
p1468
aV9f1baf1773a84f81a64a0d9b7b22a010
p1469
aV082cd50632274eb0b40fcc15d3339f88
p1470
aV4b2c183b69974fa3b1c1af98020bf156
p1471
aVece266241ce848ada801914b59e84d46
p1472
atp1473
Rp1474
sVm
p1475
g243
((lp1476
g370
ag698
ag449
ag771
ag1103
ag946
ag1194
ag1019
ag522
ag1092
ag844
ag595
ag1267
ag607
atp1477
Rp1478
sVma
p1479
g243
((lp1480
g370
ag698
ag449
ag771
ag1103
ag946
ag1194
ag1019
ag522
ag1092
ag844
ag595
ag1267
ag607
atp1481
Rp1482
sVanagement
p1483
g243
((lp1484
g370
ag449
ag1103
ag946
ag1194
ag1019
ag1092
ag607
atp1485
Rp1486
sVman
p1487
g243
((lp1488
g370
ag449
ag1103
ag946
ag1194
ag1019
ag522
ag1092
ag607
atp1489
Rp1490
sVnagement
p1491
g243
((lp1492
g370
ag449
ag1103
ag946
ag1194
ag1019
ag1092
ag607
atp1493
Rp1494
sVmana
p1495
g243
((lp1496
g370
ag449
ag1103
ag946
ag1194
ag1019
ag1092
ag607
atp1497
Rp1498
sVagement
p1499
g243
((lp1500
g370
ag449
ag1103
ag946
ag1194
ag1019
ag1092
ag607
atp1501
Rp1502
sVmanag
p1503
g243
((lp1504
g370
ag449
ag1103
ag946
ag1194
ag1019
ag1092
ag607
atp1505
Rp1506
sVgement
p1507
g243
((lp1508
g370
ag449
ag1103
ag946
ag1194
ag1019
ag1092
ag607
atp1509
Rp1510
sVmanage
p1511
g243
((lp1512
g370
ag449
ag1103
ag946
ag1194
ag1019
ag1092
ag607
atp1513
Rp1514
sVement
p1515
g243
((lp1516
g370
ag449
ag1103
ag946
ag1194
ag1019
ag1092
ag607
atp1517
Rp1518
sVmanagem
p1519
g243
((lp1520
g370
ag449
ag1103
ag946
ag1194
ag1019
ag1092
ag607
atp1521
Rp1522
sVment
p1523
g243
((lp1524
g370
ag449
ag1103
ag946
ag1194
ag1019
ag1092
ag844
ag595
ag1267
ag607
atp1525
Rp1526
sVmanageme
p1527
g243
((lp1528
g370
ag449
ag1103
ag946
ag1194
ag1019
ag1092
ag607
atp1529
Rp1530
sVent
p1531
g243
((lp1532
g370
ag698
ag449
ag1103
ag946
ag1194
ag1019
ag1092
ag844
ag595
ag1267
ag607
atp1533
Rp1534
sVmanagemen
p1535
g243
((lp1536
g370
ag449
ag1103
ag946
ag1194
ag1019
ag1092
ag607
atp1537
Rp1538
sVnt
p1539
g243
((lp1540
g370
ag698
ag449
ag1103
ag946
ag1194
ag1019
ag1092
ag844
ag595
ag1267
ag607
atp1541
Rp1542
sVt
p1543
g243
((lp1544
g370
ag698
ag449
ag771
ag1103
ag946
ag1194
ag1019
ag522
ag1092
ag844
ag595
ag1267
ag607
atp1545
Rp1546
sVgeneral
p1547
g243
((lp1548
Vece266241ce848ada801914b59e84d46
p1549
atp1550
Rp1551
sVg
p1552
g243
((lp1553
g370
ag698
ag449
ag771
ag946
ag1194
ag1019
ag522
ag1092
ag844
ag595
ag1267
ag607
atp1554
Rp1555
sVge
p1556
g243
((lp1557
g771
ag1194
ag1019
ag1092
ag595
ag607
atp1558
Rp1559
sVeneral
p1560
g243
((lp1561
g607
atp1562
Rp1563
sVneral
p1564
g243
((lp1565
g607
atp1566
Rp1567
sVgene
p1568
g243
((lp1569
g607
atp1570
Rp1571
sVeral
p1572
g243
((lp1573
g607
atp1574
Rp1575
sVgener
p1576
g243
((lp1577
g607
atp1578
Rp1579
sVral
p1580
g243
((lp1581
g607
atp1582
Rp1583
sVgenera
p1584
g243
((lp1585
g607
atp1586
Rp1587
sVal
p1588
g243
((lp1589
g370
ag698
ag449
ag771
ag946
ag1194
ag1019
ag522
ag1092
ag844
ag595
ag1267
ag607
atp1590
Rp1591
sVl
p1592
g243
((lp1593
g370
ag698
ag449
ag771
ag1103
ag946
ag1194
ag855
ag1278
ag1019
ag522
ag1092
ag844
ag595
ag1267
ag607
atp1594
Rp1595
sVrms-001
p1596
g243
((lp1597
Vdcc0e1c931c54fc6b270c583a5645de2
p1598
atp1599
Rp1600
sVms-001
p1601
g243
((lp1602
g370
atp1603
Rp1604
sVs-001
p1605
g243
((lp1606
g370
atp1607
Rp1608
sV-001
p1609
g243
((lp1610
g370
atp1611
Rp1612
sVrms-0
p1613
g243
((lp1614
g370
ag698
ag449
ag771
ag946
ag1194
ag1019
ag522
ag1092
ag844
ag595
ag1267
atp1615
Rp1616
sV001
p1617
g243
((lp1618
g370
atp1619
Rp1620
sVrms-00
p1621
g243
((lp1622
g370
ag698
ag449
ag771
ag946
ag1019
ag522
ag844
ag595
atp1623
Rp1624
sV01
p1625
g243
((lp1626
g370
atp1627
Rp1628
sV1
p1629
g243
((lp1630
g1194
ag370
atp1631
Rp1632
sVselection
p1633
g243
((lp1634
Vdcc0e1c931c54fc6b270c583a5645de2
p1635
aV74dd17d0bab34ea2ba20612c3b1507eb
p1636
atp1637
Rp1638
sVse
p1639
g243
((lp1640
g370
ag449
ag946
ag855
ag1019
ag522
ag844
atp1641
Rp1642
sVelection
p1643
g243
((lp1644
g370
ag449
atp1645
Rp1646
sVsel
p1647
g243
((lp1648
g370
ag449
atp1649
Rp1650
sVlection
p1651
g243
((lp1652
g370
ag449
atp1653
Rp1654
sVsele
p1655
g243
((lp1656
g370
ag449
atp1657
Rp1658
sVection
p1659
g243
((lp1660
g370
ag449
atp1661
Rp1662
sVselec
p1663
g243
((lp1664
g370
ag449
atp1665
Rp1666
sVction
p1667
g243
((lp1668
g370
ag449
atp1669
Rp1670
sVselect
p1671
g243
((lp1672
g370
ag449
atp1673
Rp1674
sVtion
p1675
g243
((lp1676
g370
ag698
ag449
ag771
ag946
ag1194
ag1019
ag522
ag1092
ag844
ag595
ag1267
atp1677
Rp1678
sVselecti
p1679
g243
((lp1680
g370
ag449
atp1681
Rp1682
sVion
p1683
g243
((lp1684
g370
ag698
ag449
ag771
ag946
ag1194
ag1019
ag522
ag1092
ag844
ag595
ag1267
atp1685
Rp1686
sVselectio
p1687
g243
((lp1688
g370
ag449
atp1689
Rp1690
sVon
p1691
g243
((lp1692
g370
ag698
ag449
ag771
ag946
ag1194
ag1019
ag522
ag1092
ag844
ag595
ag1267
atp1693
Rp1694
sVsystem
p1695
g243
((lp1696
Vaa3c723b5f0e4658bed2960a77fa8a6d
p1697
aVdcc0e1c931c54fc6b270c583a5645de2
p1698
aVc7ca7f3f64034ca9983bd6484fe655c2
p1699
aV4b2c183b69974fa3b1c1af98020bf156
p1700
atp1701
Rp1702
sVsy
p1703
g243
((lp1704
g595
ag370
ag771
ag1092
atp1705
Rp1706
sVystem
p1707
g243
((lp1708
g595
ag370
ag771
ag1092
atp1709
Rp1710
sVsys
p1711
g243
((lp1712
Vaa3c723b5f0e4658bed2960a77fa8a6d
p1713
ag370
ag771
ag1092
atp1714
Rp1715
sVstem
p1716
g243
((lp1717
g595
ag370
ag771
ag1092
atp1718
Rp1719
sVsyst
p1720
g243
((lp1721
g595
ag370
ag771
ag1092
atp1722
Rp1723
sVtem
p1724
g243
((lp1725
g595
ag370
ag771
ag1092
atp1726
Rp1727
sVsyste
p1728
g243
((lp1729
g595
ag370
ag771
ag1092
atp1730
Rp1731
sVem
p1732
g243
((lp1733
g595
ag370
ag771
ag1092
atp1734
Rp1735
sVexport
p1736
g243
((lp1737
Vdcc0e1c931c54fc6b270c583a5645de2
p1738
aVc7ca7f3f64034ca9983bd6484fe655c2
p1739
aV74dd17d0bab34ea2ba20612c3b1507eb
p1740
aV755951b2b64948b4a6ded24d1317f132
p1741
aVcf525f283fb0402187572f7af68c46b9
p1742
atp1743
Rp1744
sVe
p1745
g243
((lp1746
g370
ag698
ag449
ag771
ag1103
ag946
ag1194
ag1019
ag522
ag1092
ag844
ag595
ag1267
atp1747
Rp1748
sVex
p1749
g243
((lp1750
g370
ag771
ag449
ag1194
ag522
ag844
atp1751
Rp1752
sVxport
p1753
g243
((lp1754
g370
ag771
ag449
ag522
ag844
atp1755
Rp1756
sVexp
p1757
g243
((lp1758
g370
ag771
ag449
ag1194
ag522
ag844
atp1759
Rp1760
sVport
p1761
g243
((lp1762
g370
ag771
ag449
ag522
ag844
atp1763
Rp1764
sVexpo
p1765
g243
((lp1766
g370
ag771
ag449
ag522
ag844
atp1767
Rp1768
sVort
p1769
g243
((lp1770
g370
ag771
ag449
ag522
ag844
atp1771
Rp1772
sVexpor
p1773
g243
((lp1774
g370
ag771
ag449
ag522
ag844
atp1775
Rp1776
sVrt
p1777
g243
((lp1778
g370
ag771
ag449
ag1194
ag522
ag844
atp1779
Rp1780
sVitar-regulated
p1781
g243
((lp1782
Vdcc0e1c931c54fc6b270c583a5645de2
p1783
atp1784
Rp1785
sVi
p1786
g243
((lp1787
g370
ag698
ag449
ag771
ag946
ag1194
ag1019
ag522
ag1092
ag844
ag595
ag1267
atp1788
Rp1789
sVit
p1790
g243
((lp1791
g370
ag698
ag449
ag771
ag946
ag1194
ag1019
ag522
ag1092
ag844
ag595
ag1267
atp1792
Rp1793
sVtar-regulated
p1794
g243
((lp1795
g370
atp1796
Rp1797
sVita
p1798
g243
((lp1799
g370
ag698
ag449
ag771
ag946
ag1194
ag1019
ag522
ag1092
ag844
ag595
ag1267
atp1800
Rp1801
sVar-regulated
p1802
g243
((lp1803
g370
atp1804
Rp1805
sVitar
p1806
g243
((lp1807
g370
aVb2715842af9e45e996a9687a3e27a709
p1808
ag449
aVc7ca7f3f64034ca9983bd6484fe655c2
p1809
aVa15af5d0a4d049c594d61f2469a7dcbc
p1810
aV9f1baf1773a84f81a64a0d9b7b22a010
p1811
aV082cd50632274eb0b40fcc15d3339f88
p1812
aV755951b2b64948b4a6ded24d1317f132
p1813
aV4b2c183b69974fa3b1c1af98020bf156
p1814
aVcf525f283fb0402187572f7af68c46b9
p1815
aVaa3c723b5f0e4658bed2960a77fa8a6d
p1816
aVea0ee14f2853485f964a51516f2fbd13
p1817
atp1818
Rp1819
sVr-regulated
p1820
g243
((lp1821
g370
atp1822
Rp1823
sVitar-
p1824
g243
((lp1825
g370
ag698
ag449
atp1826
Rp1827
sV-regulated
p1828
g243
((lp1829
g370
atp1830
Rp1831
sVitar-r
p1832
g243
((lp1833
g370
atp1834
Rp1835
sVregulated
p1836
g243
((lp1837
g370
atp1838
Rp1839
sVitar-re
p1840
g243
((lp1841
g370
atp1842
Rp1843
sVegulated
p1844
g243
((lp1845
g370
atp1846
Rp1847
sVitar-reg
p1848
g243
((lp1849
g370
atp1850
Rp1851
sVgulated
p1852
g243
((lp1853
g370
atp1854
Rp1855
sVitar-regu
p1856
g243
((lp1857
g370
atp1858
Rp1859
sVulated
p1860
g243
((lp1861
g370
atp1862
Rp1863
sVitar-regul
p1864
g243
((lp1865
g370
atp1866
Rp1867
sVlated
p1868
g243
((lp1869
g370
ag522
atp1870
Rp1871
sVitar-regula
p1872
g243
((lp1873
g370
atp1874
Rp1875
sVated
p1876
g243
((lp1877
g370
ag1194
ag1019
ag522
ag1092
ag1267
atp1878
Rp1879
sVitar-regulat
p1880
g243
((lp1881
g370
atp1882
Rp1883
sVted
p1884
g243
((lp1885
g370
ag698
ag1194
ag1019
ag522
ag1092
ag1267
atp1886
Rp1887
sVitar-regulate
p1888
g243
((lp1889
g370
atp1890
Rp1891
sVed
p1892
g243
((lp1893
g370
ag698
ag449
ag771
ag946
ag1194
ag1019
ag522
ag1092
ag844
ag595
ag1267
atp1894
Rp1895
sVd
p1896
g243
((lp1897
g370
ag698
ag449
ag771
ag946
ag1194
ag855
ag1278
ag1019
ag522
ag1092
ag844
ag595
ag1267
atp1898
Rp1899
sVdata
p1900
g243
((lp1901
Vdcc0e1c931c54fc6b270c583a5645de2
p1902
aVb2715842af9e45e996a9687a3e27a709
p1903
aVc7ca7f3f64034ca9983bd6484fe655c2
p1904
ag449
aV755951b2b64948b4a6ded24d1317f132
p1905
aVcf525f283fb0402187572f7af68c46b9
p1906
atp1907
Rp1908
sVda
p1909
g243
((lp1910
g370
ag698
ag771
ag449
ag522
ag844
atp1911
Rp1912
sVata
p1913
g243
((lp1914
g370
ag698
ag771
ag522
ag844
atp1915
Rp1916
sVdat
p1917
g243
((lp1918
g370
ag698
ag771
ag449
ag522
ag844
atp1919
Rp1920
sVta
p1921
g243
((lp1922
g370
ag698
ag771
ag522
ag844
atp1923
Rp1924
sVa
p1925
g243
((lp1926
g370
ag698
ag449
ag771
ag946
ag1194
ag855
ag1278
ag1019
ag522
ag1092
ag844
ag595
ag1267
atp1927
Rp1928
sVtechnical
p1929
g243
((lp1930
Vdcc0e1c931c54fc6b270c583a5645de2
p1931
aVb2715842af9e45e996a9687a3e27a709
p1932
aVc7ca7f3f64034ca9983bd6484fe655c2
p1933
aVa15af5d0a4d049c594d61f2469a7dcbc
p1934
aV082cd50632274eb0b40fcc15d3339f88
p1935
aV755951b2b64948b4a6ded24d1317f132
p1936
aVcf525f283fb0402187572f7af68c46b9
p1937
atp1938
Rp1939
sVte
p1940
g243
((lp1941
g370
ag698
ag449
ag771
ag946
ag1194
ag1019
ag522
ag1092
ag844
ag595
ag1267
atp1942
Rp1943
sVechnical
p1944
g243
((lp1945
g370
ag698
ag771
ag946
ag1019
ag522
ag844
atp1946
Rp1947
sVtec
p1948
g243
((lp1949
g370
ag698
ag771
ag946
ag1019
ag522
ag844
atp1950
Rp1951
sVchnical
p1952
g243
((lp1953
g370
ag698
ag771
ag946
ag1019
ag522
ag844
atp1954
Rp1955
sVtech
p1956
g243
((lp1957
g370
ag698
ag771
ag946
ag1019
ag522
ag844
atp1958
Rp1959
sVhnical
p1960
g243
((lp1961
g370
ag698
ag771
ag946
ag1019
ag522
ag844
atp1962
Rp1963
sVtechn
p1964
g243
((lp1965
g370
ag698
ag771
ag946
ag1019
ag522
ag844
atp1966
Rp1967
sVnical
p1968
g243
((lp1969
g370
ag698
ag771
ag946
ag1019
ag522
ag844
atp1970
Rp1971
sVtechni
p1972
g243
((lp1973
g370
ag698
ag771
ag946
ag1019
ag522
ag844
atp1974
Rp1975
sVical
p1976
g243
((lp1977
g370
ag698
ag771
ag946
ag1019
ag522
ag844
ag595
atp1978
Rp1979
sVtechnic
p1980
g243
((lp1981
g370
ag698
ag771
ag946
ag1019
ag522
ag844
atp1982
Rp1983
sVcal
p1984
g243
((lp1985
g370
ag698
ag771
ag946
ag1019
ag522
ag844
ag595
atp1986
Rp1987
sVtechnica
p1988
g243
((lp1989
g370
ag698
ag771
ag946
ag1019
ag522
ag844
atp1990
Rp1991
sVutilize
p1992
g243
((lp1993
Vdcc0e1c931c54fc6b270c583a5645de2
p1994
aV74dd17d0bab34ea2ba20612c3b1507eb
p1995
atp1996
Rp1997
sVu
p1998
g243
((lp1999
g370
ag698
ag449
ag771
ag946
ag1194
ag1019
ag844
atp2000
Rp2001
sVut
p2002
g243
((lp2003
g595
ag370
ag449
atp2004
Rp2005
sVtilize
p2006
g243
((lp2007
g370
ag449
atp2008
Rp2009
sVuti
p2010
g243
((lp2011
g370
ag449
atp2012
Rp2013
sVilize
p2014
g243
((lp2015
g370
ag449
atp2016
Rp2017
sVutil
p2018
g243
((lp2019
g370
ag449
atp2020
Rp2021
sVlize
p2022
g243
((lp2023
g370
ag449
atp2024
Rp2025
sVutili
p2026
g243
((lp2027
g370
ag449
atp2028
Rp2029
sVize
p2030
g243
((lp2031
g370
ag449
atp2032
Rp2033
sVutiliz
p2034
g243
((lp2035
g370
ag449
atp2036
Rp2037
sVze
p2038
g243
((lp2039
g370
ag449
atp2040
Rp2041
sVmaintaining
p2042
g243
((lp2043
Vea0ee14f2853485f964a51516f2fbd13
p2044
aVdcc0e1c931c54fc6b270c583a5645de2
p2045
atp2046
Rp2047
sVaintaining
p2048
g243
((lp2049
g1267
ag370
atp2050
Rp2051
sVmai
p2052
g243
((lp2053
g370
ag771
ag522
ag1092
ag595
ag1267
atp2054
Rp2055
sVintaining
p2056
g243
((lp2057
g1267
ag370
atp2058
Rp2059
sVmain
p2060
g243
((lp2061
g370
ag771
ag522
ag1092
ag595
ag1267
atp2062
Rp2063
sVntaining
p2064
g243
((lp2065
g1267
ag370
atp2066
Rp2067
sVmaint
p2068
g243
((lp2069
g370
ag771
ag522
ag1092
ag595
ag1267
atp2070
Rp2071
sVtaining
p2072
g243
((lp2073
g1267
ag370
atp2074
Rp2075
sVmainta
p2076
g243
((lp2077
g370
ag771
ag1092
ag595
ag1267
atp2078
Rp2079
sVaining
p2080
g243
((lp2081
g1267
ag370
ag698
atp2082
Rp2083
sVmaintai
p2084
g243
((lp2085
g370
ag771
ag1092
ag595
ag1267
atp2086
Rp2087
sVining
p2088
g243
((lp2089
g1267
ag370
ag698
atp2090
Rp2091
sVmaintain
p2092
g243
((lp2093
g370
aVc7ca7f3f64034ca9983bd6484fe655c2
p2094
aV4b2c183b69974fa3b1c1af98020bf156
p2095
aVaa3c723b5f0e4658bed2960a77fa8a6d
p2096
ag1267
atp2097
Rp2098
sVning
p2099
g243
((lp2100
g1267
ag370
ag698
atp2101
Rp2102
sVmaintaini
p2103
g243
((lp2104
g1267
ag370
atp2105
Rp2106
sVing
p2107
g243
((lp2108
g370
ag698
ag771
ag946
ag1194
ag1019
ag522
ag1092
ag844
ag595
ag1267
atp2109
Rp2110
sVmaintainin
p2111
g243
((lp2112
g1267
ag370
atp2113
Rp2114
sVng
p2115
g243
((lp2116
g370
ag698
ag771
ag946
ag1194
ag1019
ag522
ag1092
ag844
ag595
ag1267
atp2117
Rp2118
sVfor
p2119
g243
((lp2120
Vdcc0e1c931c54fc6b270c583a5645de2
p2121
aVb2715842af9e45e996a9687a3e27a709
p2122
aVc7ca7f3f64034ca9983bd6484fe655c2
p2123
aV74dd17d0bab34ea2ba20612c3b1507eb
p2124
ag946
aV9f1baf1773a84f81a64a0d9b7b22a010
p2125
ag1019
aV755951b2b64948b4a6ded24d1317f132
p2126
aV4b2c183b69974fa3b1c1af98020bf156
p2127
aVcf525f283fb0402187572f7af68c46b9
p2128
aVea0ee14f2853485f964a51516f2fbd13
p2129
atp2130
Rp2131
sVf
p2132
g243
((lp2133
g370
ag698
ag449
ag771
ag1103
ag946
ag1194
ag1019
ag522
ag1092
ag844
ag595
ag1267
atp2134
Rp2135
sVfo
p2136
g243
((lp2137
g370
ag698
ag771
ag449
ag946
ag1194
ag1019
ag522
ag1092
ag844
ag1267
atp2138
Rp2139
sVor
p2140
g243
((lp2141
g370
ag698
ag771
ag449
ag946
ag1194
ag1019
ag522
ag1092
ag844
ag1267
atp2142
Rp2143
sVcompliance
p2144
g243
((lp2145
Vdcc0e1c931c54fc6b270c583a5645de2
p2146
aVc7ca7f3f64034ca9983bd6484fe655c2
p2147
aV9f1baf1773a84f81a64a0d9b7b22a010
p2148
aV755951b2b64948b4a6ded24d1317f132
p2149
aV4b2c183b69974fa3b1c1af98020bf156
p2150
aVea0ee14f2853485f964a51516f2fbd13
p2151
atp2152
Rp2153
sVc
p2154
g243
((lp2155
g370
ag698
ag449
ag771
ag946
ag1194
ag855
ag1019
ag522
ag1092
ag844
ag595
ag1267
atp2156
Rp2157
sVco
p2158
g243
((lp2159
g370
ag698
ag449
ag771
ag946
ag1194
ag855
ag1019
ag522
ag1092
ag844
ag595
ag1267
atp2160
Rp2161
sVompliance
p2162
g243
((lp2163
g370
ag771
ag1194
ag522
ag1092
ag1267
atp2164
Rp2165
sVcom
p2166
g243
((lp2167
g370
ag698
ag771
ag946
ag1194
ag522
ag1092
ag595
ag1267
atp2168
Rp2169
sVmpliance
p2170
g243
((lp2171
g370
ag771
ag1194
ag522
ag1092
ag1267
atp2172
Rp2173
sVcomp
p2174
g243
((lp2175
g370
ag698
ag771
ag1194
ag522
ag1092
ag595
ag1267
atp2176
Rp2177
sVpliance
p2178
g243
((lp2179
g370
ag771
ag1194
ag522
ag1092
ag1267
atp2180
Rp2181
sVcompl
p2182
g243
((lp2183
g370
ag698
ag771
ag1194
ag522
ag1092
ag595
ag1267
atp2184
Rp2185
sVliance
p2186
g243
((lp2187
g370
ag771
ag1194
ag522
ag1092
ag1267
atp2188
Rp2189
sVcompli
p2190
g243
((lp2191
g370
ag771
ag1194
ag522
ag1092
ag1267
atp2192
Rp2193
sViance
p2194
g243
((lp2195
g370
ag771
ag1194
ag522
ag1092
ag1267
atp2196
Rp2197
sVcomplia
p2198
g243
((lp2199
g370
ag771
ag1194
ag522
ag1092
ag1267
atp2200
Rp2201
sVance
p2202
g243
((lp2203
g370
ag771
ag1194
ag522
ag1092
ag844
ag1267
atp2204
Rp2205
sVcomplian
p2206
g243
((lp2207
g370
ag771
ag1194
ag522
ag1092
ag1267
atp2208
Rp2209
sVnce
p2210
g243
((lp2211
g370
ag771
ag1194
ag522
ag1092
ag844
ag1267
atp2212
Rp2213
sVcomplianc
p2214
g243
((lp2215
g370
ag771
ag1194
ag522
ag1092
ag1267
atp2216
Rp2217
sVce
p2218
g243
((lp2219
g370
ag771
ag1194
ag522
ag1092
ag844
ag1267
atp2220
Rp2221
sVcontrol
p2222
g243
((lp2223
Vdcc0e1c931c54fc6b270c583a5645de2
p2224
aVb2715842af9e45e996a9687a3e27a709
p2225
aV74dd17d0bab34ea2ba20612c3b1507eb
p2226
aVc7ca7f3f64034ca9983bd6484fe655c2
p2227
ag946
ag1194
aV87b54b1b7084421b8459731c87f4e90e
p2228
aV082cd50632274eb0b40fcc15d3339f88
p2229
aV755951b2b64948b4a6ded24d1317f132
p2230
ag1092
aVcf525f283fb0402187572f7af68c46b9
p2231
ag595
ag1267
atp2232
Rp2233
sVontrol
p2234
g243
((lp2235
g370
ag698
ag449
ag771
ag855
ag1019
ag522
ag844
atp2236
Rp2237
sVcon
p2238
g243
((lp2239
g370
ag698
ag449
ag771
ag946
ag1194
ag855
ag1019
ag522
ag1092
ag844
ag595
ag1267
atp2240
Rp2241
sVntrol
p2242
g243
((lp2243
g370
ag698
ag449
ag771
ag855
ag1019
ag522
ag844
atp2244
Rp2245
sVcont
p2246
g243
((lp2247
g370
ag698
ag449
ag771
ag946
ag1194
ag855
ag1019
ag522
ag1092
ag844
ag595
ag1267
atp2248
Rp2249
sVtrol
p2250
g243
((lp2251
g370
ag698
ag449
ag771
ag855
ag1019
ag522
ag844
atp2252
Rp2253
sVcontr
p2254
g243
((lp2255
g370
ag698
ag449
ag771
ag946
ag1194
ag855
ag1019
ag522
ag1092
ag844
ag595
ag1267
atp2256
Rp2257
sVrol
p2258
g243
((lp2259
g370
ag698
ag449
ag771
ag1194
ag855
ag1278
ag1019
ag522
ag844
atp2260
Rp2261
sVcontro
p2262
g243
((lp2263
g370
ag698
ag449
ag771
ag946
ag1194
ag855
ag1019
ag522
ag1092
ag844
ag595
ag1267
atp2264
Rp2265
sVol
p2266
g243
((lp2267
g370
ag698
ag449
ag771
ag1194
ag855
ag1278
ag1019
ag522
ag844
atp2268
Rp2269
sVversion
p2270
g243
((lp2271
Vdcc0e1c931c54fc6b270c583a5645de2
p2272
aV74dd17d0bab34ea2ba20612c3b1507eb
p2273
aVc7ca7f3f64034ca9983bd6484fe655c2
p2274
atp2275
Rp2276
sVv
p2277
g243
((lp2278
g370
ag698
ag449
ag771
ag1092
atp2279
Rp2280
sVve
p2281
g243
((lp2282
g370
ag698
ag449
ag771
ag946
ag1194
ag1019
ag522
ag1092
ag844
ag595
ag1267
atp2283
Rp2284
sVersion
p2285
g243
((lp2286
g370
ag449
ag771
atp2287
Rp2288
sVver
p2289
g243
((lp2290
g370
ag449
ag771
ag1092
atp2291
Rp2292
sVrsion
p2293
g243
((lp2294
g370
ag449
ag771
atp2295
Rp2296
sVvers
p2297
g243
((lp2298
g370
ag449
ag771
atp2299
Rp2300
sVsion
p2301
g243
((lp2302
g370
ag449
ag771
atp2303
Rp2304
sVversi
p2305
g243
((lp2306
g370
ag449
ag771
atp2307
Rp2308
sVversio
p2309
g243
((lp2310
g370
ag449
ag771
atp2311
Rp2312
sVtraceability
p2313
g243
((lp2314
Vdcc0e1c931c54fc6b270c583a5645de2
p2315
aV74dd17d0bab34ea2ba20612c3b1507eb
p2316
aV082cd50632274eb0b40fcc15d3339f88
p2317
aV4b2c183b69974fa3b1c1af98020bf156
p2318
aVaa3c723b5f0e4658bed2960a77fa8a6d
p2319
aVea0ee14f2853485f964a51516f2fbd13
p2320
atp2321
Rp2322
sVtr
p2323
g243
((lp2324
g370
ag698
ag449
ag771
ag1019
ag522
ag1092
ag595
ag1267
atp2325
Rp2326
sVraceability
p2327
g243
((lp2328
g370
ag449
ag1019
ag1092
ag595
ag1267
atp2329
Rp2330
sVtra
p2331
g243
((lp2332
g370
ag698
ag449
ag771
ag1019
ag522
ag1092
ag595
ag1267
atp2333
Rp2334
sVaceability
p2335
g243
((lp2336
g370
ag449
ag1019
ag1092
ag595
ag1267
atp2337
Rp2338
sVtrac
p2339
g243
((lp2340
g370
ag449
ag771
ag1019
ag1092
ag595
ag1267
atp2341
Rp2342
sVceability
p2343
g243
((lp2344
g370
ag449
ag1019
ag1092
ag595
ag1267
atp2345
Rp2346
sVtrace
p2347
g243
((lp2348
g370
ag449
ag1019
ag1092
ag595
ag1267
atp2349
Rp2350
sVeability
p2351
g243
((lp2352
g370
ag449
ag1019
ag1092
ag595
ag1267
atp2353
Rp2354
sVtracea
p2355
g243
((lp2356
g370
ag449
ag1019
ag1092
ag595
ag1267
atp2357
Rp2358
sVability
p2359
g243
((lp2360
g370
ag449
ag1019
ag1092
ag595
ag1267
atp2361
Rp2362
sVtraceab
p2363
g243
((lp2364
g370
ag449
ag1019
ag1092
ag595
ag1267
atp2365
Rp2366
sVbility
p2367
g243
((lp2368
g370
ag449
ag1019
ag1092
ag595
ag1267
atp2369
Rp2370
sVtraceabi
p2371
g243
((lp2372
g370
ag449
ag1019
ag1092
ag595
ag1267
atp2373
Rp2374
sVility
p2375
g243
((lp2376
g370
ag449
ag1019
ag1092
ag595
ag1267
atp2377
Rp2378
sVtraceabil
p2379
g243
((lp2380
g370
ag449
ag1019
ag1092
ag595
ag1267
atp2381
Rp2382
sVlity
p2383
g243
((lp2384
g370
ag449
ag1019
ag1092
ag595
ag1267
atp2385
Rp2386
sVtraceabili
p2387
g243
((lp2388
g370
ag449
ag1019
ag1092
ag595
ag1267
atp2389
Rp2390
sVity
p2391
g243
((lp2392
g370
ag449
ag946
ag1194
ag855
ag1019
ag1092
ag844
ag595
ag1267
atp2393
Rp2394
sVtraceabilit
p2395
g243
((lp2396
g370
ag449
ag1019
ag1092
ag595
ag1267
atp2397
Rp2398
sVty
p2399
g243
((lp2400
g370
ag449
ag946
ag1194
ag855
ag1019
ag1092
ag844
ag595
ag1267
atp2401
Rp2402
sVy
p2403
g243
((lp2404
g370
ag698
ag449
ag946
ag1194
ag855
ag1019
ag522
ag1092
ag844
ag595
ag1267
atp2405
Rp2406
sVproject
p2407
g243
((lp2408
Vaa3c723b5f0e4658bed2960a77fa8a6d
p2409
aVdcc0e1c931c54fc6b270c583a5645de2
p2410
aV74dd17d0bab34ea2ba20612c3b1507eb
p2411
aV9f1baf1773a84f81a64a0d9b7b22a010
p2412
atp2413
Rp2414
sVp
p2415
g243
((lp2416
g370
ag698
ag449
ag771
ag946
ag1194
ag1019
ag522
ag844
ag595
ag1267
atp2417
Rp2418
sVpr
p2419
g243
((lp2420
g370
ag698
ag449
ag946
ag1194
ag1019
ag522
ag844
ag595
ag1267
atp2421
Rp2422
sVroject
p2423
g243
((lp2424
g595
ag370
ag449
ag1194
atp2425
Rp2426
sVpro
p2427
g243
((lp2428
g370
ag698
ag449
ag946
ag1194
ag1019
ag522
ag844
ag595
ag1267
atp2429
Rp2430
sVoject
p2431
g243
((lp2432
g595
ag370
ag449
ag1194
atp2433
Rp2434
sVproj
p2435
g243
((lp2436
g595
ag370
ag449
ag1194
atp2437
Rp2438
sVject
p2439
g243
((lp2440
g595
ag370
ag449
ag1194
atp2441
Rp2442
sVproje
p2443
g243
((lp2444
g595
ag370
ag449
ag1194
atp2445
Rp2446
sVect
p2447
g243
((lp2448
g595
ag370
ag449
ag1194
atp2449
Rp2450
sVprojec
p2451
g243
((lp2452
g595
ag370
ag449
ag1194
atp2453
Rp2454
sVct
p2455
g243
((lp2456
g370
ag698
ag449
ag1194
ag1019
ag1092
ag595
atp2457
Rp2458
sVshall
p2459
g243
((lp2460
Vdcc0e1c931c54fc6b270c583a5645de2
p2461
aVb2715842af9e45e996a9687a3e27a709
p2462
aV74dd17d0bab34ea2ba20612c3b1507eb
p2463
aVc7ca7f3f64034ca9983bd6484fe655c2
p2464
aVa15af5d0a4d049c594d61f2469a7dcbc
p2465
aV9f1baf1773a84f81a64a0d9b7b22a010
p2466
aV082cd50632274eb0b40fcc15d3339f88
p2467
aV755951b2b64948b4a6ded24d1317f132
p2468
aV4b2c183b69974fa3b1c1af98020bf156
p2469
aVcf525f283fb0402187572f7af68c46b9
p2470
aVaa3c723b5f0e4658bed2960a77fa8a6d
p2471
aVea0ee14f2853485f964a51516f2fbd13
p2472
atp2473
Rp2474
sVsh
p2475
g243
((lp2476
g370
ag698
ag449
ag771
ag946
ag1194
ag1019
ag522
ag1092
ag844
ag595
ag1267
atp2477
Rp2478
sVhall
p2479
g243
((lp2480
g370
ag698
ag449
ag771
ag946
ag1194
ag1019
ag522
ag1092
ag844
ag595
ag1267
atp2481
Rp2482
sVsha
p2483
g243
((lp2484
g370
ag698
ag449
ag771
ag946
ag1194
ag1019
ag522
ag1092
ag844
ag595
ag1267
atp2485
Rp2486
sVall
p2487
g243
((lp2488
g370
ag698
aV74dd17d0bab34ea2ba20612c3b1507eb
p2489
ag771
aVa15af5d0a4d049c594d61f2469a7dcbc
p2490
ag1194
ag1019
ag522
ag1092
ag844
ag595
ag1267
atp2491
Rp2492
sVshal
p2493
g243
((lp2494
g370
ag698
ag449
ag771
ag946
ag1194
ag1019
ag522
ag1092
ag844
ag595
ag1267
atp2495
Rp2496
sVll
p2497
g243
((lp2498
g370
ag698
ag449
ag771
ag946
ag1194
ag1019
ag522
ag1092
ag844
ag595
ag1267
atp2499
Rp2500
sVthe
p2501
g243
((lp2502
Vdcc0e1c931c54fc6b270c583a5645de2
p2503
aVb2715842af9e45e996a9687a3e27a709
p2504
aV74dd17d0bab34ea2ba20612c3b1507eb
p2505
aV9f1baf1773a84f81a64a0d9b7b22a010
p2506
aV4b2c183b69974fa3b1c1af98020bf156
p2507
aVcf525f283fb0402187572f7af68c46b9
p2508
aVaa3c723b5f0e4658bed2960a77fa8a6d
p2509
atp2510
Rp2511
sVth
p2512
g243
((lp2513
g370
ag698
ag449
ag771
ag946
ag1194
ag1019
ag522
ag1092
ag844
ag595
ag1267
atp2514
Rp2515
sVhe
p2516
g243
((lp2517
g370
ag698
ag449
ag1194
ag1092
ag844
ag595
atp2518
Rp2519
sVof
p2520
g243
((lp2521
Vdcc0e1c931c54fc6b270c583a5645de2
p2522
aVb2715842af9e45e996a9687a3e27a709
p2523
aV74dd17d0bab34ea2ba20612c3b1507eb
p2524
aVc7ca7f3f64034ca9983bd6484fe655c2
p2525
aVa15af5d0a4d049c594d61f2469a7dcbc
p2526
aV9f1baf1773a84f81a64a0d9b7b22a010
p2527
aV082cd50632274eb0b40fcc15d3339f88
p2528
aV755951b2b64948b4a6ded24d1317f132
p2529
aV4b2c183b69974fa3b1c1af98020bf156
p2530
aVcf525f283fb0402187572f7af68c46b9
p2531
aVaa3c723b5f0e4658bed2960a77fa8a6d
p2532
aVea0ee14f2853485f964a51516f2fbd13
p2533
atp2534
Rp2535
sVo
p2536
g243
((lp2537
g370
ag698
ag449
ag771
ag946
ag1194
ag1019
ag522
ag1092
ag844
ag595
ag1267
atp2538
Rp2539
sVcapable
p2540
g243
((lp2541
Vdcc0e1c931c54fc6b270c583a5645de2
p2542
atp2543
Rp2544
sVca
p2545
g243
((lp2546
g370
ag449
atp2547
Rp2548
sVapable
p2549
g243
((lp2550
g370
atp2551
Rp2552
sVcap
p2553
g243
((lp2554
g370
ag449
atp2555
Rp2556
sVpable
p2557
g243
((lp2558
g370
atp2559
Rp2560
sVcapa
p2561
g243
((lp2562
g370
ag449
atp2563
Rp2564
sVable
p2565
g243
((lp2566
g595
ag370
ag449
atp2567
Rp2568
sVcapab
p2569
g243
((lp2570
g370
ag449
atp2571
Rp2572
sVble
p2573
g243
((lp2574
g370
ag449
ag1194
ag595
ag1267
atp2575
Rp2576
sVcapabl
p2577
g243
((lp2578
g370
atp2579
Rp2580
sVle
p2581
g243
((lp2582
g370
ag449
ag1103
ag1194
ag595
ag1267
atp2583
Rp2584
sVand
p2585
g243
((lp2586
Vdcc0e1c931c54fc6b270c583a5645de2
p2587
aVb2715842af9e45e996a9687a3e27a709
p2588
aV74dd17d0bab34ea2ba20612c3b1507eb
p2589
aVc7ca7f3f64034ca9983bd6484fe655c2
p2590
aVa15af5d0a4d049c594d61f2469a7dcbc
p2591
aV9f1baf1773a84f81a64a0d9b7b22a010
p2592
aV87b54b1b7084421b8459731c87f4e90e
p2593
aV250b77c60e2d4d7d8e2793e941126db6
p2594
aV082cd50632274eb0b40fcc15d3339f88
p2595
aV755951b2b64948b4a6ded24d1317f132
p2596
aV4b2c183b69974fa3b1c1af98020bf156
p2597
aVcf525f283fb0402187572f7af68c46b9
p2598
aVaa3c723b5f0e4658bed2960a77fa8a6d
p2599
aVea0ee14f2853485f964a51516f2fbd13
p2600
atp2601
Rp2602
sVan
p2603
g243
((lp2604
g370
ag698
ag449
ag771
ag946
ag1194
ag855
ag1278
ag1019
ag522
ag1092
ag844
ag595
ag1267
atp2605
Rp2606
sVnd
p2607
g243
((lp2608
g370
ag698
ag449
ag771
ag946
ag1194
ag855
ag1278
ag1019
ag522
ag1092
ag844
ag595
ag1267
atp2609
Rp2610
sVstrict
p2611
g243
((lp2612
Vdcc0e1c931c54fc6b270c583a5645de2
p2613
aVb2715842af9e45e996a9687a3e27a709
p2614
atp2615
Rp2616
sVst
p2617
g243
((lp2618
g595
ag370
ag698
ag844
atp2619
Rp2620
sVtrict
p2621
g243
((lp2622
g370
ag698
atp2623
Rp2624
sVstr
p2625
g243
((lp2626
g595
ag370
ag698
atp2627
Rp2628
sVrict
p2629
g243
((lp2630
g370
ag698
atp2631
Rp2632
sVstri
p2633
g243
((lp2634
g370
ag698
atp2635
Rp2636
sVict
p2637
g243
((lp2638
g370
ag698
atp2639
Rp2640
sVstric
p2641
g243
((lp2642
g370
ag698
atp2643
Rp2644
sVensures
p2645
g243
((lp2646
V9f1baf1773a84f81a64a0d9b7b22a010
p2647
aVea0ee14f2853485f964a51516f2fbd13
p2648
aVdcc0e1c931c54fc6b270c583a5645de2
p2649
atp2650
Rp2651
sVnsures
p2652
g243
((lp2653
g1194
ag1267
ag370
atp2654
Rp2655
sVens
p2656
g243
((lp2657
g370
ag946
ag1194
ag1019
ag844
ag595
ag1267
atp2658
Rp2659
sVsures
p2660
g243
((lp2661
g1194
ag1267
ag370
atp2662
Rp2663
sVensu
p2664
g243
((lp2665
g370
ag946
ag1194
ag1019
ag844
ag595
ag1267
atp2666
Rp2667
sVures
p2668
g243
((lp2669
g370
ag449
ag1194
ag522
ag1267
atp2670
Rp2671
sVensur
p2672
g243
((lp2673
g370
ag946
ag1194
ag1019
ag844
ag595
ag1267
atp2674
Rp2675
sVres
p2676
g243
((lp2677
g370
ag698
ag449
ag946
ag1194
ag1278
ag522
ag1267
atp2678
Rp2679
sVensure
p2680
g243
((lp2681
g370
ag1194
aVa15af5d0a4d049c594d61f2469a7dcbc
p2682
aV082cd50632274eb0b40fcc15d3339f88
p2683
aVcf525f283fb0402187572f7af68c46b9
p2684
ag1267
atp2685
Rp2686
sVes
p2687
g243
((lp2688
g370
ag449
ag771
ag946
ag1194
ag1278
ag1019
ag522
ag1092
ag844
ag595
ag1267
atp2689
Rp2690
sVdefense
p2691
g243
((lp2692
Vdcc0e1c931c54fc6b270c583a5645de2
p2693
aV755951b2b64948b4a6ded24d1317f132
p2694
atp2695
Rp2696
sVde
p2697
g243
((lp2698
g370
ag771
ag1194
ag522
ag1092
ag844
ag595
ag1267
atp2699
Rp2700
sVefense
p2701
g243
((lp2702
g370
ag522
atp2703
Rp2704
sVdef
p2705
g243
((lp2706
g370
ag522
atp2707
Rp2708
sVfense
p2709
g243
((lp2710
g370
ag522
atp2711
Rp2712
sVdefe
p2713
g243
((lp2714
g370
ag522
atp2715
Rp2716
sVense
p2717
g243
((lp2718
g370
ag522
atp2719
Rp2720
sVdefen
p2721
g243
((lp2722
g370
ag522
atp2723
Rp2724
sVnse
p2725
g243
((lp2726
g370
ag522
atp2727
Rp2728
sVdefens
p2729
g243
((lp2730
g370
ag522
atp2731
Rp2732
sVtrails
p2733
g243
((lp2734
Vdcc0e1c931c54fc6b270c583a5645de2
p2735
aVc7ca7f3f64034ca9983bd6484fe655c2
p2736
atp2737
Rp2738
sVrails
p2739
g243
((lp2740
g370
ag771
atp2741
Rp2742
sVails
p2743
g243
((lp2744
g370
ag771
atp2745
Rp2746
sVtrai
p2747
g243
((lp2748
g370
ag698
ag771
ag522
atp2749
Rp2750
sVils
p2751
g243
((lp2752
g370
ag771
atp2753
Rp2754
sVtrail
p2755
g243
((lp2756
g370
aVc7ca7f3f64034ca9983bd6484fe655c2
p2757
aV755951b2b64948b4a6ded24d1317f132
p2758
atp2759
Rp2760
sVls
p2761
g243
((lp2762
g595
ag370
ag698
ag771
atp2763
Rp2764
sVrelated
p2765
g243
((lp2766
Vdcc0e1c931c54fc6b270c583a5645de2
p2767
aV755951b2b64948b4a6ded24d1317f132
p2768
atp2769
Rp2770
sVelated
p2771
g243
((lp2772
g370
ag522
atp2773
Rp2774
sVrel
p2775
g243
((lp2776
g370
ag522
atp2777
Rp2778
sVrela
p2779
g243
((lp2780
g370
ag522
atp2781
Rp2782
sVrelat
p2783
g243
((lp2784
g370
ag522
atp2785
Rp2786
sVrelate
p2787
g243
((lp2788
g370
ag522
atp2789
Rp2790
sVaudit
p2791
g243
((lp2792
Vdcc0e1c931c54fc6b270c583a5645de2
p2793
aVc7ca7f3f64034ca9983bd6484fe655c2
p2794
aV755951b2b64948b4a6ded24d1317f132
p2795
atp2796
Rp2797
sVau
p2798
g243
((lp2799
g370
ag698
ag771
ag1194
ag522
ag1092
ag1267
atp2800
Rp2801
sVudit
p2802
g243
((lp2803
g370
ag771
ag522
atp2804
Rp2805
sVaud
p2806
g243
((lp2807
g370
ag771
ag522
atp2808
Rp2809
sVdit
p2810
g243
((lp2811
g370
ag771
ag522
atp2812
Rp2813
sVaudi
p2814
g243
((lp2815
g370
ag771
ag522
atp2816
Rp2817
sVregulatory
p2818
g243
((lp2819
Vdcc0e1c931c54fc6b270c583a5645de2
p2820
atp2821
Rp2822
sVegulatory
p2823
g243
((lp2824
g370
atp2825
Rp2826
sVreg
p2827
g243
((lp2828
g370
ag698
ag771
ag1194
ag522
ag844
atp2829
Rp2830
sVgulatory
p2831
g243
((lp2832
g370
atp2833
Rp2834
sVregu
p2835
g243
((lp2836
g370
ag698
ag771
ag1194
ag522
ag844
atp2837
Rp2838
sVulatory
p2839
g243
((lp2840
g370
atp2841
Rp2842
sVregul
p2843
g243
((lp2844
g370
ag698
ag771
ag1194
ag522
ag844
atp2845
Rp2846
sVlatory
p2847
g243
((lp2848
g370
atp2849
Rp2850
sVregula
p2851
g243
((lp2852
g370
ag698
ag771
ag1194
ag522
ag844
atp2853
Rp2854
sVatory
p2855
g243
((lp2856
g370
atp2857
Rp2858
sVregulat
p2859
g243
((lp2860
g370
ag698
ag771
ag1194
ag522
ag844
atp2861
Rp2862
sVtory
p2863
g243
((lp2864
g370
atp2865
Rp2866
sVregulato
p2867
g243
((lp2868
g370
atp2869
Rp2870
sVory
p2871
g243
((lp2872
g370
atp2873
Rp2874
sVregulator
p2875
g243
((lp2876
g370
atp2877
Rp2878
sVry
p2879
g243
((lp2880
g1267
ag370
ag449
ag1092
atp2881
Rp2882
sVprovides
p2883
g243
((lp2884
V9f1baf1773a84f81a64a0d9b7b22a010
p2885
aVdcc0e1c931c54fc6b270c583a5645de2
p2886
aV74dd17d0bab34ea2ba20612c3b1507eb
p2887
atp2888
Rp2889
sVrovides
p2890
g243
((lp2891
g1194
ag370
ag449
atp2892
Rp2893
sVovides
p2894
g243
((lp2895
g1194
ag370
ag449
atp2896
Rp2897
sVprov
p2898
g243
((lp2899
g1194
ag370
ag449
atp2900
Rp2901
sVvides
p2902
g243
((lp2903
g1194
ag370
ag449
atp2904
Rp2905
sVprovi
p2906
g243
((lp2907
g1194
ag370
ag449
atp2908
Rp2909
sVides
p2910
g243
((lp2911
g1194
ag370
ag449
atp2912
Rp2913
sVprovid
p2914
g243
((lp2915
g1194
ag370
ag449
atp2916
Rp2917
sVdes
p2918
g243
((lp2919
g370
ag449
ag771
ag1194
ag1092
ag595
atp2920
Rp2921
sVprovide
p2922
g243
((lp2923
g1194
ag370
ag449
atp2924
Rp2925
sVtar
p2926
g243
((lp2927
g370
ag698
ag449
ag771
ag946
ag1194
ag1019
ag522
ag1092
ag844
ag595
ag1267
atp2928
Rp2929
sVar
p2930
g243
((lp2931
g370
ag698
ag449
ag771
ag946
ag1194
ag1019
ag522
ag1092
ag844
ag595
ag1267
atp2932
Rp2933
sVformal
p2934
g243
((lp2935
Vdcc0e1c931c54fc6b270c583a5645de2
p2936
aVa15af5d0a4d049c594d61f2469a7dcbc
p2937
aV082cd50632274eb0b40fcc15d3339f88
p2938
atp2939
Rp2940
sVormal
p2941
g243
((lp2942
g370
ag946
ag1019
atp2943
Rp2944
sVrmal
p2945
g243
((lp2946
g370
ag946
ag1019
atp2947
Rp2948
sVform
p2949
g243
((lp2950
g1267
ag370
ag946
ag1019
atp2951
Rp2952
sVmal
p2953
g243
((lp2954
g370
ag946
ag1019
atp2955
Rp2956
sVforma
p2957
g243
((lp2958
g1267
ag370
ag946
ag1019
atp2959
Rp2960
sVarticles
p2961
g243
((lp2962
Vdcc0e1c931c54fc6b270c583a5645de2
p2963
aV755951b2b64948b4a6ded24d1317f132
p2964
atp2965
Rp2966
sVrticles
p2967
g243
((lp2968
g370
ag522
atp2969
Rp2970
sVart
p2971
g243
((lp2972
g1194
ag370
ag522
ag1092
atp2973
Rp2974
sVticles
p2975
g243
((lp2976
g370
ag522
atp2977
Rp2978
sVarti
p2979
g243
((lp2980
g370
ag522
ag1092
atp2981
Rp2982
sVicles
p2983
g243
((lp2984
g370
ag522
atp2985
Rp2986
sVartic
p2987
g243
((lp2988
g370
ag522
atp2989
Rp2990
sVcles
p2991
g243
((lp2992
g370
ag522
atp2993
Rp2994
sVarticl
p2995
g243
((lp2996
g370
ag522
atp2997
Rp2998
sVles
p2999
g243
((lp3000
g370
ag1278
ag522
ag1092
ag595
atp3001
Rp3002
sVarticle
p3003
g243
((lp3004
g370
ag522
atp3005
Rp3006
sVwith
p3007
g243
((lp3008
Vdcc0e1c931c54fc6b270c583a5645de2
p3009
aVb2715842af9e45e996a9687a3e27a709
p3010
aV74dd17d0bab34ea2ba20612c3b1507eb
p3011
aVc7ca7f3f64034ca9983bd6484fe655c2
p3012
aVa15af5d0a4d049c594d61f2469a7dcbc
p3013
aV9f1baf1773a84f81a64a0d9b7b22a010
p3014
aV755951b2b64948b4a6ded24d1317f132
p3015
aVcf525f283fb0402187572f7af68c46b9
p3016
aVaa3c723b5f0e4658bed2960a77fa8a6d
p3017
aVea0ee14f2853485f964a51516f2fbd13
p3018
atp3019
Rp3020
sVw
p3021
g243
((lp3022
g370
ag698
ag449
ag771
ag946
ag1194
ag1019
ag522
ag1092
ag844
ag595
ag1267
atp3023
Rp3024
sVwi
p3025
g243
((lp3026
g370
ag698
ag449
ag771
ag946
ag1194
ag522
ag844
ag595
ag1267
atp3027
Rp3028
sVith
p3029
g243
((lp3030
g370
ag698
ag449
ag771
ag946
ag1194
ag522
ag844
ag595
ag1267
atp3031
Rp3032
sVwit
p3033
g243
((lp3034
g370
ag698
ag449
ag771
ag946
ag1194
ag522
ag844
ag595
ag1267
atp3035
Rp3036
sVh
p3037
g243
((lp3038
g370
ag698
ag449
ag771
ag946
ag1194
ag1019
ag522
ag1092
ag844
ag595
ag1267
atp3039
Rp3040
sVregulations
p3041
g243
((lp3042
Vdcc0e1c931c54fc6b270c583a5645de2
p3043
aVb2715842af9e45e996a9687a3e27a709
p3044
aVc7ca7f3f64034ca9983bd6484fe655c2
p3045
aV9f1baf1773a84f81a64a0d9b7b22a010
p3046
aV755951b2b64948b4a6ded24d1317f132
p3047
aVcf525f283fb0402187572f7af68c46b9
p3048
atp3049
Rp3050
sVegulations
p3051
g243
((lp3052
g370
ag698
ag771
ag1194
ag522
ag844
atp3053
Rp3054
sVgulations
p3055
g243
((lp3056
g370
ag698
ag771
ag1194
ag522
ag844
atp3057
Rp3058
sVulations
p3059
g243
((lp3060
g370
ag698
ag771
ag1194
ag522
ag844
atp3061
Rp3062
sVlations
p3063
g243
((lp3064
g370
ag698
ag771
ag1194
ag522
ag844
atp3065
Rp3066
sVations
p3067
g243
((lp3068
g370
ag698
ag771
ag1194
ag1019
ag522
ag844
atp3069
Rp3070
sVtions
p3071
g243
((lp3072
g370
ag698
ag771
ag1194
ag1019
ag522
ag844
atp3073
Rp3074
sVregulati
p3075
g243
((lp3076
g370
ag698
ag771
ag1194
ag522
ag844
atp3077
Rp3078
sVions
p3079
g243
((lp3080
g370
ag698
ag771
ag1194
ag1019
ag522
ag844
atp3081
Rp3082
sVregulatio
p3083
g243
((lp3084
g370
ag698
ag771
ag1194
ag522
ag844
atp3085
Rp3086
sVons
p3087
g243
((lp3088
g370
ag698
ag771
ag1194
ag1019
ag522
ag844
atp3089
Rp3090
sVregulation
p3091
g243
((lp3092
g370
ag698
ag771
ag1194
ag522
ag844
atp3093
Rp3094
sVns
p3095
g243
((lp3096
g370
ag698
ag771
ag1194
ag1019
ag522
ag844
atp3097
Rp3098
sVto
p3099
g243
((lp3100
Vdcc0e1c931c54fc6b270c583a5645de2
p3101
aVb2715842af9e45e996a9687a3e27a709
p3102
ag449
aVc7ca7f3f64034ca9983bd6484fe655c2
p3103
aVa15af5d0a4d049c594d61f2469a7dcbc
p3104
ag1194
aV082cd50632274eb0b40fcc15d3339f88
p3105
aV755951b2b64948b4a6ded24d1317f132
p3106
aVcf525f283fb0402187572f7af68c46b9
p3107
ag595
atp3108
Rp3109
sVequire
p3110
g243
((lp3111
g370
ag698
ag771
atp3112
Rp3113
sVquire
p3114
g243
((lp3115
g370
ag698
ag771
atp3116
Rp3117
sVuire
p3118
g243
((lp3119
g370
ag698
ag771
atp3120
Rp3121
sVire
p3122
g243
((lp3123
g370
ag698
ag771
atp3124
Rp3125
sVdocumentation
p3126
g243
((lp3127
Vdcc0e1c931c54fc6b270c583a5645de2
p3128
aVb2715842af9e45e996a9687a3e27a709
p3129
aV74dd17d0bab34ea2ba20612c3b1507eb
p3130
aVc7ca7f3f64034ca9983bd6484fe655c2
p3131
aVa15af5d0a4d049c594d61f2469a7dcbc
p3132
aV082cd50632274eb0b40fcc15d3339f88
p3133
aV755951b2b64948b4a6ded24d1317f132
p3134
aVaa3c723b5f0e4658bed2960a77fa8a6d
p3135
aVea0ee14f2853485f964a51516f2fbd13
p3136
atp3137
Rp3138
sVdo
p3139
g243
((lp3140
g370
ag698
ag449
ag771
ag946
ag1019
ag522
ag844
ag595
ag1267
atp3141
Rp3142
sVocumentation
p3143
g243
((lp3144
g370
ag698
ag449
ag771
ag946
ag1019
ag522
ag595
ag1267
atp3145
Rp3146
sVdoc
p3147
g243
((lp3148
g370
ag698
ag449
ag771
ag946
ag1019
ag522
ag844
ag595
ag1267
atp3149
Rp3150
sVcumentation
p3151
g243
((lp3152
g370
ag698
ag449
ag771
ag946
ag1019
ag522
ag595
ag1267
atp3153
Rp3154
sVdocu
p3155
g243
((lp3156
g370
ag698
ag449
ag771
ag946
ag1019
ag522
ag844
ag595
ag1267
atp3157
Rp3158
sVumentation
p3159
g243
((lp3160
g370
ag698
ag449
ag771
ag946
ag1019
ag522
ag595
ag1267
atp3161
Rp3162
sVdocum
p3163
g243
((lp3164
g370
ag698
ag449
ag771
ag946
ag1019
ag522
ag844
ag595
ag1267
atp3165
Rp3166
sVmentation
p3167
g243
((lp3168
g370
ag698
ag449
ag771
ag946
ag1019
ag522
ag1092
ag595
ag1267
atp3169
Rp3170
sVdocume
p3171
g243
((lp3172
g370
ag698
ag449
ag771
ag946
ag1019
ag522
ag844
ag595
ag1267
atp3173
Rp3174
sVentation
p3175
g243
((lp3176
g370
ag698
ag449
ag771
ag946
ag1019
ag522
ag1092
ag595
ag1267
atp3177
Rp3178
sVdocumen
p3179
g243
((lp3180
g370
ag698
ag449
ag771
ag946
ag1019
ag522
ag844
ag595
ag1267
atp3181
Rp3182
sVntation
p3183
g243
((lp3184
g370
ag698
ag449
ag771
ag946
ag1019
ag522
ag1092
ag595
ag1267
atp3185
Rp3186
sVdocument
p3187
g243
((lp3188
g370
ag698
ag449
ag771
ag946
ag1019
ag522
ag844
aVaa3c723b5f0e4658bed2960a77fa8a6d
p3189
ag1267
atp3190
Rp3191
sVtation
p3192
g243
((lp3193
g370
ag698
ag449
ag771
ag946
ag1019
ag522
ag1092
ag595
ag1267
atp3194
Rp3195
sVdocumenta
p3196
g243
((lp3197
g370
ag698
ag449
ag771
ag946
ag1019
ag522
ag595
ag1267
atp3198
Rp3199
sVation
p3200
g243
((lp3201
g370
ag698
ag449
ag771
ag946
ag1194
ag1019
ag522
ag1092
ag844
ag595
ag1267
atp3202
Rp3203
sVdocumentat
p3204
g243
((lp3205
g370
ag698
ag449
ag771
ag946
ag1019
ag522
ag595
ag1267
atp3206
Rp3207
sVdocumentati
p3208
g243
((lp3209
g370
ag698
ag449
ag771
ag946
ag1019
ag522
ag595
ag1267
atp3210
Rp3211
sVdocumentatio
p3212
g243
((lp3213
g370
ag698
ag449
ag771
ag946
ag1019
ag522
ag595
ag1267
atp3214
Rp3215
sVreview
p3216
g243
((lp3217
Vdcc0e1c931c54fc6b270c583a5645de2
p3218
aVb2715842af9e45e996a9687a3e27a709
p3219
aV74dd17d0bab34ea2ba20612c3b1507eb
p3220
aVc7ca7f3f64034ca9983bd6484fe655c2
p3221
aVa15af5d0a4d049c594d61f2469a7dcbc
p3222
aV9f1baf1773a84f81a64a0d9b7b22a010
p3223
aV082cd50632274eb0b40fcc15d3339f88
p3224
aV4b2c183b69974fa3b1c1af98020bf156
p3225
aVcf525f283fb0402187572f7af68c46b9
p3226
aVaa3c723b5f0e4658bed2960a77fa8a6d
p3227
aVea0ee14f2853485f964a51516f2fbd13
p3228
atp3229
Rp3230
sVeview
p3231
g243
((lp3232
g370
ag698
ag449
ag771
ag946
ag1194
ag1019
ag1092
ag844
ag595
ag1267
atp3233
Rp3234
sVrev
p3235
g243
((lp3236
g370
ag698
ag449
ag771
ag946
ag1194
ag1019
ag1092
ag844
ag595
ag1267
atp3237
Rp3238
sVview
p3239
g243
((lp3240
g370
ag698
ag449
ag771
ag946
ag1194
ag1019
ag1092
ag844
ag595
ag1267
atp3241
Rp3242
sVrevi
p3243
g243
((lp3244
g370
ag698
ag449
ag771
ag946
ag1194
ag1019
ag1092
ag844
ag595
ag1267
atp3245
Rp3246
sView
p3247
g243
((lp3248
g370
ag698
ag449
ag771
ag946
ag1194
ag1019
ag1092
ag844
ag595
ag1267
atp3249
Rp3250
sVrevie
p3251
g243
((lp3252
g370
ag698
ag449
ag771
ag946
ag1194
ag1019
ag1092
ag844
ag595
ag1267
atp3253
Rp3254
sVew
p3255
g243
((lp3256
g370
ag698
ag449
ag771
ag946
ag1194
ag1019
ag1092
ag844
ag595
ag1267
atp3257
Rp3258
sVreport
p3259
g243
((lp3260
Vdcc0e1c931c54fc6b270c583a5645de2
p3261
ag771
ag1092
atp3262
Rp3263
sVeport
p3264
g243
((lp3265
g370
atp3266
Rp3267
sVrep
p3268
g243
((lp3269
g370
ag771
ag1092
atp3270
Rp3271
sVrepo
p3272
g243
((lp3273
g370
ag771
ag1092
atp3274
Rp3275
sVrepor
p3276
g243
((lp3277
g370
ag771
ag1092
atp3278
Rp3279
sVverification
p3280
g243
((lp3281
Vdcc0e1c931c54fc6b270c583a5645de2
p3282
aV74dd17d0bab34ea2ba20612c3b1507eb
p3283
aV4b2c183b69974fa3b1c1af98020bf156
p3284
atp3285
Rp3286
sVerification
p3287
g243
((lp3288
g370
ag449
ag1092
atp3289
Rp3290
sVrification
p3291
g243
((lp3292
g370
ag449
ag1092
atp3293
Rp3294
sVveri
p3295
g243
((lp3296
g370
ag449
ag1092
atp3297
Rp3298
sVification
p3299
g243
((lp3300
g370
ag771
ag449
ag522
ag1092
ag844
ag1267
atp3301
Rp3302
sVverif
p3303
g243
((lp3304
g370
ag449
ag1092
atp3305
Rp3306
sVfication
p3307
g243
((lp3308
g370
ag771
ag449
ag522
ag1092
ag844
ag1267
atp3309
Rp3310
sVverifi
p3311
g243
((lp3312
g370
ag449
ag1092
atp3313
Rp3314
sVication
p3315
g243
((lp3316
g370
ag771
ag449
ag1194
ag522
ag1092
ag844
ag1267
atp3317
Rp3318
sVverific
p3319
g243
((lp3320
g370
ag449
ag1092
atp3321
Rp3322
sVcation
p3323
g243
((lp3324
g370
ag771
ag449
ag1194
ag522
ag1092
ag844
ag1267
atp3325
Rp3326
sVverifica
p3327
g243
((lp3328
g370
ag449
ag1092
atp3329
Rp3330
sVverificat
p3331
g243
((lp3332
g370
ag449
ag1092
atp3333
Rp3334
sVverificati
p3335
g243
((lp3336
g370
ag449
ag1092
atp3337
Rp3338
sVverificatio
p3339
g243
((lp3340
g370
ag449
ag1092
atp3341
Rp3342
sVcontrolled
p3343
g243
((lp3344
Vdcc0e1c931c54fc6b270c583a5645de2
p3345
aVb2715842af9e45e996a9687a3e27a709
p3346
ag449
aVc7ca7f3f64034ca9983bd6484fe655c2
p3347
aVa15af5d0a4d049c594d61f2469a7dcbc
p3348
aV9f1baf1773a84f81a64a0d9b7b22a010
p3349
aV082cd50632274eb0b40fcc15d3339f88
p3350
aV755951b2b64948b4a6ded24d1317f132
p3351
aV4b2c183b69974fa3b1c1af98020bf156
p3352
aVcf525f283fb0402187572f7af68c46b9
p3353
aVaa3c723b5f0e4658bed2960a77fa8a6d
p3354
aVea0ee14f2853485f964a51516f2fbd13
p3355
atp3356
Rp3357
sVontrolled
p3358
g243
((lp3359
g370
ag698
ag449
ag771
ag946
ag1194
ag1019
ag522
ag1092
ag844
ag595
ag1267
atp3360
Rp3361
sVntrolled
p3362
g243
((lp3363
g370
ag698
ag449
ag771
ag946
ag1194
ag1019
ag522
ag1092
ag844
ag595
ag1267
atp3364
Rp3365
sVtrolled
p3366
g243
((lp3367
g370
ag698
ag449
ag771
ag946
ag1194
ag1019
ag522
ag1092
ag844
ag595
ag1267
atp3368
Rp3369
sVrolled
p3370
g243
((lp3371
g370
ag698
ag449
ag771
ag946
ag1194
ag1019
ag522
ag1092
ag844
ag595
ag1267
atp3372
Rp3373
sVolled
p3374
g243
((lp3375
g370
ag698
ag449
ag771
ag946
ag1194
ag1019
ag522
ag1092
ag844
ag595
ag1267
atp3376
Rp3377
sVlled
p3378
g243
((lp3379
g370
ag698
ag449
ag771
ag946
ag1194
ag1019
ag522
ag1092
ag844
ag595
ag1267
atp3380
Rp3381
sVcontroll
p3382
g243
((lp3383
g370
ag698
ag449
ag771
ag946
ag1194
ag1019
ag522
ag1092
ag844
ag595
ag1267
atp3384
Rp3385
sVled
p3386
g243
((lp3387
g370
ag698
ag449
ag771
ag946
ag1194
ag1019
ag522
ag1092
ag844
ag595
ag1267
atp3388
Rp3389
sVcontrolle
p3390
g243
((lp3391
g370
ag698
ag449
ag771
ag946
ag1194
ag1019
ag522
ag1092
ag844
ag595
ag1267
atp3392
Rp3393
sVear99
p3394
g243
((lp3395
Vdcc0e1c931c54fc6b270c583a5645de2
p3396
aVb2715842af9e45e996a9687a3e27a709
p3397
aV74dd17d0bab34ea2ba20612c3b1507eb
p3398
aVc7ca7f3f64034ca9983bd6484fe655c2
p3399
aVa15af5d0a4d049c594d61f2469a7dcbc
p3400
aV9f1baf1773a84f81a64a0d9b7b22a010
p3401
aV082cd50632274eb0b40fcc15d3339f88
p3402
aV755951b2b64948b4a6ded24d1317f132
p3403
aV4b2c183b69974fa3b1c1af98020bf156
p3404
aVcf525f283fb0402187572f7af68c46b9
p3405
aVaa3c723b5f0e4658bed2960a77fa8a6d
p3406
aVea0ee14f2853485f964a51516f2fbd13
p3407
atp3408
Rp3409
sVea
p3410
g243
((lp3411
g370
ag698
ag449
ag771
ag946
ag1194
ag1019
ag522
ag1092
ag844
ag595
ag1267
atp3412
Rp3413
sVar99
p3414
g243
((lp3415
g370
ag698
ag449
ag771
ag946
ag1194
ag1019
ag522
ag1092
ag844
ag595
ag1267
atp3416
Rp3417
sVear
p3418
g243
((lp3419
g370
ag698
ag449
ag771
ag946
ag1194
ag1019
ag522
ag1092
ag844
ag595
ag1267
atp3420
Rp3421
sVr99
p3422
g243
((lp3423
g370
ag698
ag449
ag771
ag946
ag1194
ag1019
ag522
ag1092
ag844
ag595
ag1267
atp3424
Rp3425
sVear9
p3426
g243
((lp3427
g370
ag698
ag449
ag771
ag946
ag1194
ag1019
ag522
ag1092
ag844
ag595
ag1267
atp3428
Rp3429
sV99
p3430
g243
((lp3431
g370
ag698
ag449
ag771
ag946
ag1194
ag1019
ag522
ag1092
ag844
ag595
ag1267
atp3432
Rp3433
sV9
p3434
g243
((lp3435
g370
ag698
ag449
ag771
ag946
ag1194
ag1019
ag522
ag1092
ag844
ag595
ag1267
atp3436
Rp3437
sVactive
p3438
g243
((lp3439
Vdcc0e1c931c54fc6b270c583a5645de2
p3440
aVb2715842af9e45e996a9687a3e27a709
p3441
aV74dd17d0bab34ea2ba20612c3b1507eb
p3442
aVc7ca7f3f64034ca9983bd6484fe655c2
p3443
aVa15af5d0a4d049c594d61f2469a7dcbc
p3444
aV9f1baf1773a84f81a64a0d9b7b22a010
p3445
aV082cd50632274eb0b40fcc15d3339f88
p3446
aV755951b2b64948b4a6ded24d1317f132
p3447
aV4b2c183b69974fa3b1c1af98020bf156
p3448
aVcf525f283fb0402187572f7af68c46b9
p3449
aVaa3c723b5f0e4658bed2960a77fa8a6d
p3450
aVea0ee14f2853485f964a51516f2fbd13
p3451
atp3452
Rp3453
sVac
p3454
g243
((lp3455
g370
ag698
ag449
ag771
ag946
ag1194
ag855
ag1019
ag522
ag1092
ag844
ag595
ag1267
atp3456
Rp3457
sVctive
p3458
g243
((lp3459
g370
ag698
ag449
ag771
ag946
ag1194
ag1019
ag522
ag1092
ag844
ag595
ag1267
atp3460
Rp3461
sVact
p3462
g243
((lp3463
g370
ag698
ag449
ag771
ag946
ag1194
ag1019
ag522
ag1092
ag844
ag595
ag1267
atp3464
Rp3465
sVtive
p3466
g243
((lp3467
g370
ag698
ag449
ag771
ag946
ag1194
ag1019
ag522
ag1092
ag844
ag595
ag1267
atp3468
Rp3469
sVacti
p3470
g243
((lp3471
g370
ag698
ag449
ag771
ag946
ag1194
ag1019
ag522
ag1092
ag844
ag595
ag1267
atp3472
Rp3473
sVive
p3474
g243
((lp3475
g370
ag698
ag449
ag771
ag946
ag1194
ag1019
ag522
ag1092
ag844
ag595
ag1267
atp3476
Rp3477
sVactiv
p3478
g243
((lp3479
g370
ag698
ag449
ag771
ag946
ag1194
ag1019
ag522
ag1092
ag844
ag595
ag1267
atp3480
Rp3481
sVrms-002
p3482
g243
((lp3483
V74dd17d0bab34ea2ba20612c3b1507eb
p3484
atp3485
Rp3486
sVms-002
p3487
g243
((lp3488
g449
atp3489
Rp3490
sVs-002
p3491
g243
((lp3492
g449
atp3493
Rp3494
sV-002
p3495
g243
((lp3496
g449
atp3497
Rp3498
sV002
p3499
g243
((lp3500
g449
atp3501
Rp3502
sV02
p3503
g243
((lp3504
g449
atp3505
Rp3506
sV2
p3507
g243
((lp3508
g1267
ag449
atp3509
Rp3510
sVdoorstop
p3511
g243
((lp3512
V74dd17d0bab34ea2ba20612c3b1507eb
p3513
atp3514
Rp3515
sVoorstop
p3516
g243
((lp3517
g449
atp3518
Rp3519
sVdoo
p3520
g243
((lp3521
g449
atp3522
Rp3523
sVorstop
p3524
g243
((lp3525
g449
atp3526
Rp3527
sVdoor
p3528
g243
((lp3529
g449
atp3530
Rp3531
sVrstop
p3532
g243
((lp3533
g449
atp3534
Rp3535
sVdoors
p3536
g243
((lp3537
g449
atp3538
Rp3539
sVstop
p3540
g243
((lp3541
g449
atp3542
Rp3543
sVdoorst
p3544
g243
((lp3545
g449
atp3546
Rp3547
sVtop
p3548
g243
((lp3549
g449
atp3550
Rp3551
sVdoorsto
p3552
g243
((lp3553
g449
atp3554
Rp3555
sVop
p3556
g243
((lp3557
g449
atp3558
Rp3559
sVtool
p3560
g243
((lp3561
V9f1baf1773a84f81a64a0d9b7b22a010
p3562
aV74dd17d0bab34ea2ba20612c3b1507eb
p3563
atp3564
Rp3565
sVool
p3566
g243
((lp3567
g1194
ag449
atp3568
Rp3569
sVtoo
p3570
g243
((lp3571
g1194
ag449
atp3572
Rp3573
sVas
p3574
g243
((lp3575
g1267
aV74dd17d0bab34ea2ba20612c3b1507eb
p3576
ag1092
atp3577
Rp3578
sVprimary
p3579
g243
((lp3580
V74dd17d0bab34ea2ba20612c3b1507eb
p3581
atp3582
Rp3583
sVrimary
p3584
g243
((lp3585
g449
atp3586
Rp3587
sVpri
p3588
g243
((lp3589
g449
atp3590
Rp3591
sVimary
p3592
g243
((lp3593
g449
atp3594
Rp3595
sVprim
p3596
g243
((lp3597
g449
atp3598
Rp3599
sVmary
p3600
g243
((lp3601
g449
atp3602
Rp3603
sVprima
p3604
g243
((lp3605
g449
atp3606
Rp3607
sVary
p3608
g243
((lp3609
g1267
ag449
ag1092
atp3610
Rp3611
sVprimar
p3612
g243
((lp3613
g449
atp3614
Rp3615
sVcapabilities
p3616
g243
((lp3617
V74dd17d0bab34ea2ba20612c3b1507eb
p3618
atp3619
Rp3620
sVapabilities
p3621
g243
((lp3622
g449
atp3623
Rp3624
sVpabilities
p3625
g243
((lp3626
g449
atp3627
Rp3628
sVabilities
p3629
g243
((lp3630
g449
atp3631
Rp3632
sVbilities
p3633
g243
((lp3634
g1278
ag1194
ag449
ag1267
atp3635
Rp3636
sVcapabi
p3637
g243
((lp3638
g449
atp3639
Rp3640
sVilities
p3641
g243
((lp3642
g1278
ag1194
ag449
ag1267
atp3643
Rp3644
sVcapabil
p3645
g243
((lp3646
g449
atp3647
Rp3648
sVlities
p3649
g243
((lp3650
g1278
ag1194
ag449
ag1267
atp3651
Rp3652
sVcapabili
p3653
g243
((lp3654
g449
atp3655
Rp3656
sVities
p3657
g243
((lp3658
g1278
ag1194
ag449
ag1267
atp3659
Rp3660
sVcapabilit
p3661
g243
((lp3662
g449
atp3663
Rp3664
sVties
p3665
g243
((lp3666
g449
ag1194
ag1278
ag522
ag1267
atp3667
Rp3668
sVcapabiliti
p3669
g243
((lp3670
g449
atp3671
Rp3672
sVies
p3673
g243
((lp3674
g449
ag1194
ag1278
ag522
ag1267
atp3675
Rp3676
sVcapabilitie
p3677
g243
((lp3678
g449
atp3679
Rp3680
sVfeatures
p3681
g243
((lp3682
V74dd17d0bab34ea2ba20612c3b1507eb
p3683
atp3684
Rp3685
sVfe
p3686
g243
((lp3687
g449
atp3688
Rp3689
sVeatures
p3690
g243
((lp3691
g449
atp3692
Rp3693
sVfea
p3694
g243
((lp3695
g449
atp3696
Rp3697
sVatures
p3698
g243
((lp3699
g449
atp3700
Rp3701
sVfeat
p3702
g243
((lp3703
g449
atp3704
Rp3705
sVtures
p3706
g243
((lp3707
g449
atp3708
Rp3709
sVfeatu
p3710
g243
((lp3711
g449
atp3712
Rp3713
sVfeatur
p3714
g243
((lp3715
g449
atp3716
Rp3717
sVfeature
p3718
g243
((lp3719
g449
atp3720
Rp3721
sVaccess
p3722
g243
((lp3723
Vb2715842af9e45e996a9687a3e27a709
p3724
aVc7ca7f3f64034ca9983bd6484fe655c2
p3725
aV74dd17d0bab34ea2ba20612c3b1507eb
p3726
aV87b54b1b7084421b8459731c87f4e90e
p3727
aV755951b2b64948b4a6ded24d1317f132
p3728
atp3729
Rp3730
sVccess
p3731
g243
((lp3732
g698
ag771
ag449
ag855
ag522
atp3733
Rp3734
sVacc
p3735
g243
((lp3736
g698
ag771
ag449
ag855
ag522
ag844
atp3737
Rp3738
sVcess
p3739
g243
((lp3740
g698
ag771
ag449
ag946
ag855
ag1019
ag522
atp3741
Rp3742
sVacce
p3743
g243
((lp3744
g698
ag771
ag449
ag855
ag522
atp3745
Rp3746
sVess
p3747
g243
((lp3748
g698
ag771
ag449
ag946
ag855
ag1019
ag522
ag1267
atp3749
Rp3750
sVacces
p3751
g243
((lp3752
g698
ag771
ag449
ag855
ag522
atp3753
Rp3754
sVss
p3755
g243
((lp3756
g698
ag771
ag449
ag946
ag855
ag1019
ag522
ag1267
atp3757
Rp3758
sVenvironments
p3759
g243
((lp3760
V74dd17d0bab34ea2ba20612c3b1507eb
p3761
atp3762
Rp3763
sVnvironments
p3764
g243
((lp3765
g449
atp3766
Rp3767
sVenv
p3768
g243
((lp3769
g449
atp3770
Rp3771
sVvironments
p3772
g243
((lp3773
g449
atp3774
Rp3775
sVenvi
p3776
g243
((lp3777
g449
atp3778
Rp3779
sVironments
p3780
g243
((lp3781
g449
atp3782
Rp3783
sVenvir
p3784
g243
((lp3785
g449
atp3786
Rp3787
sVronments
p3788
g243
((lp3789
g449
atp3790
Rp3791
sVenviro
p3792
g243
((lp3793
g449
atp3794
Rp3795
sVonments
p3796
g243
((lp3797
g449
atp3798
Rp3799
sVenviron
p3800
g243
((lp3801
g449
atp3802
Rp3803
sVnments
p3804
g243
((lp3805
g449
atp3806
Rp3807
sVenvironm
p3808
g243
((lp3809
g449
atp3810
Rp3811
sVenvironme
p3812
g243
((lp3813
g449
atp3814
Rp3815
sVenvironmen
p3816
g243
((lp3817
g449
atp3818
Rp3819
sVenvironment
p3820
g243
((lp3821
g449
atp3822
Rp3823
sVintegration
p3824
g243
((lp3825
V74dd17d0bab34ea2ba20612c3b1507eb
p3826
atp3827
Rp3828
sVin
p3829
g243
((lp3830
g698
ag771
ag449
ag946
ag1019
aV755951b2b64948b4a6ded24d1317f132
p3831
ag1092
aVcf525f283fb0402187572f7af68c46b9
p3832
ag595
ag1267
atp3833
Rp3834
sVntegration
p3835
g243
((lp3836
g449
atp3837
Rp3838
sVint
p3839
g243
((lp3840
g595
ag449
ag522
atp3841
Rp3842
sVtegration
p3843
g243
((lp3844
g449
atp3845
Rp3846
sVinte
p3847
g243
((lp3848
g449
ag522
atp3849
Rp3850
sVegration
p3851
g243
((lp3852
g449
atp3853
Rp3854
sVinteg
p3855
g243
((lp3856
g449
atp3857
Rp3858
sVgration
p3859
g243
((lp3860
g449
atp3861
Rp3862
sVintegr
p3863
g243
((lp3864
g449
atp3865
Rp3866
sVration
p3867
g243
((lp3868
g1194
ag449
ag1092
atp3869
Rp3870
sVintegra
p3871
g243
((lp3872
g449
atp3873
Rp3874
sVintegrat
p3875
g243
((lp3876
g449
atp3877
Rp3878
sVintegrati
p3879
g243
((lp3880
g449
atp3881
Rp3882
sVintegratio
p3883
g243
((lp3884
g449
atp3885
Rp3886
sVitar-controlled
p3887
g243
((lp3888
Vb2715842af9e45e996a9687a3e27a709
p3889
aV74dd17d0bab34ea2ba20612c3b1507eb
p3890
atp3891
Rp3892
sVtar-controlled
p3893
g243
((lp3894
g698
ag449
atp3895
Rp3896
sVar-controlled
p3897
g243
((lp3898
g698
ag449
atp3899
Rp3900
sVr-controlled
p3901
g243
((lp3902
g698
ag449
atp3903
Rp3904
sV-controlled
p3905
g243
((lp3906
g698
ag449
atp3907
Rp3908
sVitar-c
p3909
g243
((lp3910
g698
ag449
atp3911
Rp3912
sVitar-co
p3913
g243
((lp3914
g698
ag449
atp3915
Rp3916
sVitar-con
p3917
g243
((lp3918
g698
ag449
atp3919
Rp3920
sVitar-cont
p3921
g243
((lp3922
g698
ag449
atp3923
Rp3924
sVitar-contr
p3925
g243
((lp3926
g698
ag449
atp3927
Rp3928
sVitar-contro
p3929
g243
((lp3930
g698
ag449
atp3931
Rp3932
sVitar-control
p3933
g243
((lp3934
g698
ag449
atp3935
Rp3936
sVitar-controll
p3937
g243
((lp3938
g698
ag449
atp3939
Rp3940
sVitar-controlle
p3941
g243
((lp3942
g698
ag449
atp3943
Rp3944
sVsuitable
p3945
g243
((lp3946
V74dd17d0bab34ea2ba20612c3b1507eb
p3947
atp3948
Rp3949
sVsu
p3950
g243
((lp3951
g449
atp3952
Rp3953
sVuitable
p3954
g243
((lp3955
g449
atp3956
Rp3957
sVsui
p3958
g243
((lp3959
g449
atp3960
Rp3961
sVitable
p3962
g243
((lp3963
g449
atp3964
Rp3965
sVsuit
p3966
g243
((lp3967
g449
atp3968
Rp3969
sVtable
p3970
g243
((lp3971
g595
ag449
atp3972
Rp3973
sVsuita
p3974
g243
((lp3975
g449
atp3976
Rp3977
sVsuitab
p3978
g243
((lp3979
g449
atp3980
Rp3981
sVsuitabl
p3982
g243
((lp3983
g449
atp3984
Rp3985
sVits
p3986
g243
((lp3987
V74dd17d0bab34ea2ba20612c3b1507eb
p3988
atp3989
Rp3990
sVgit
p3991
g243
((lp3992
V74dd17d0bab34ea2ba20612c3b1507eb
p3993
atp3994
Rp3995
sVgi
p3996
g243
((lp3997
g449
atp3998
Rp3999
sVsupport
p4000
g243
((lp4001
V74dd17d0bab34ea2ba20612c3b1507eb
p4002
atp4003
Rp4004
sVupport
p4005
g243
((lp4006
g449
atp4007
Rp4008
sVsup
p4009
g243
((lp4010
g449
atp4011
Rp4012
sVpport
p4013
g243
((lp4014
g449
atp4015
Rp4016
sVsupp
p4017
g243
((lp4018
g449
atp4019
Rp4020
sVsuppo
p4021
g243
((lp4022
g449
atp4023
Rp4024
sVsuppor
p4025
g243
((lp4026
g449
atp4027
Rp4028
sVarchitecture
p4029
g243
((lp4030
V74dd17d0bab34ea2ba20612c3b1507eb
p4031
atp4032
Rp4033
sVrchitecture
p4034
g243
((lp4035
g449
atp4036
Rp4037
sVarc
p4038
g243
((lp4039
g449
atp4040
Rp4041
sVchitecture
p4042
g243
((lp4043
g449
atp4044
Rp4045
sVarch
p4046
g243
((lp4047
g449
atp4048
Rp4049
sVhitecture
p4050
g243
((lp4051
g449
atp4052
Rp4053
sVarchi
p4054
g243
((lp4055
g449
atp4056
Rp4057
sVitecture
p4058
g243
((lp4059
g449
atp4060
Rp4061
sVarchit
p4062
g243
((lp4063
g449
atp4064
Rp4065
sVtecture
p4066
g243
((lp4067
g449
atp4068
Rp4069
sVarchite
p4070
g243
((lp4071
g449
atp4072
Rp4073
sVecture
p4074
g243
((lp4075
g449
atp4076
Rp4077
sVarchitec
p4078
g243
((lp4079
g449
atp4080
Rp4081
sVcture
p4082
g243
((lp4083
g595
ag449
atp4084
Rp4085
sVarchitect
p4086
g243
((lp4087
g449
atp4088
Rp4089
sVture
p4090
g243
((lp4091
g595
ag449
atp4092
Rp4093
sVarchitectu
p4094
g243
((lp4095
g449
atp4096
Rp4097
sVure
p4098
g243
((lp4099
g698
ag449
ag946
ag1019
ag522
ag844
ag595
atp4100
Rp4101
sVarchitectur
p4102
g243
((lp4103
g449
atp4104
Rp4105
sVlightweight
p4106
g243
((lp4107
V74dd17d0bab34ea2ba20612c3b1507eb
p4108
atp4109
Rp4110
sVli
p4111
g243
((lp4112
g595
ag1267
ag449
ag1103
atp4113
Rp4114
sVightweight
p4115
g243
((lp4116
g449
atp4117
Rp4118
sVlig
p4119
g243
((lp4120
g449
atp4121
Rp4122
sVghtweight
p4123
g243
((lp4124
g449
atp4125
Rp4126
sVligh
p4127
g243
((lp4128
g449
atp4129
Rp4130
sVhtweight
p4131
g243
((lp4132
g449
atp4133
Rp4134
sVlight
p4135
g243
((lp4136
g449
atp4137
Rp4138
sVtweight
p4139
g243
((lp4140
g449
atp4141
Rp4142
sVlightw
p4143
g243
((lp4144
g449
atp4145
Rp4146
sVweight
p4147
g243
((lp4148
g449
atp4149
Rp4150
sVlightwe
p4151
g243
((lp4152
g449
atp4153
Rp4154
sVeight
p4155
g243
((lp4156
g449
atp4157
Rp4158
sVlightwei
p4159
g243
((lp4160
g449
atp4161
Rp4162
sVight
p4163
g243
((lp4164
g1194
ag449
atp4165
Rp4166
sVlightweig
p4167
g243
((lp4168
g449
atp4169
Rp4170
sVght
p4171
g243
((lp4172
g1194
ag449
atp4173
Rp4174
sVlightweigh
p4175
g243
((lp4176
g449
atp4177
Rp4178
sVht
p4179
g243
((lp4180
g1194
ag449
atp4181
Rp4182
sVtext-based
p4183
g243
((lp4184
V74dd17d0bab34ea2ba20612c3b1507eb
p4185
atp4186
Rp4187
sVext-based
p4188
g243
((lp4189
g449
atp4190
Rp4191
sVtex
p4192
g243
((lp4193
g449
atp4194
Rp4195
sVxt-based
p4196
g243
((lp4197
g449
atp4198
Rp4199
sVtext
p4200
g243
((lp4201
g449
atp4202
Rp4203
sVt-based
p4204
g243
((lp4205
g449
atp4206
Rp4207
sVtext-
p4208
g243
((lp4209
g449
atp4210
Rp4211
sV-based
p4212
g243
((lp4213
g449
atp4214
Rp4215
sVtext-b
p4216
g243
((lp4217
g449
atp4218
Rp4219
sVbased
p4220
g243
((lp4221
g449
atp4222
Rp4223
sVtext-ba
p4224
g243
((lp4225
g449
atp4226
Rp4227
sVased
p4228
g243
((lp4229
g449
atp4230
Rp4231
sVtext-bas
p4232
g243
((lp4233
g449
atp4234
Rp4235
sVsed
p4236
g243
((lp4237
g1019
ag449
atp4238
Rp4239
sVtext-base
p4240
g243
((lp4241
g449
atp4242
Rp4243
sVthrough
p4244
g243
((lp4245
g595
aV082cd50632274eb0b40fcc15d3339f88
p4246
aV74dd17d0bab34ea2ba20612c3b1507eb
p4247
aV4b2c183b69974fa3b1c1af98020bf156
p4248
atp4249
Rp4250
sVhrough
p4251
g243
((lp4252
g1019
ag449
ag1092
atp4253
Rp4254
sVthr
p4255
g243
((lp4256
g595
ag1019
ag449
ag1092
atp4257
Rp4258
sVrough
p4259
g243
((lp4260
g1019
ag449
ag1092
atp4261
Rp4262
sVthro
p4263
g243
((lp4264
g595
ag1019
ag449
ag1092
atp4265
Rp4266
sVough
p4267
g243
((lp4268
g1019
ag449
ag1092
atp4269
Rp4270
sVthrou
p4271
g243
((lp4272
g595
ag1019
ag449
ag1092
atp4273
Rp4274
sVugh
p4275
g243
((lp4276
g1019
ag449
ag1092
atp4277
Rp4278
sVthroug
p4279
g243
((lp4280
g595
ag1019
ag449
ag1092
atp4281
Rp4282
sVgh
p4283
g243
((lp4284
g1019
ag449
ag1092
atp4285
Rp4286
sVdatabase
p4287
g243
((lp4288
V74dd17d0bab34ea2ba20612c3b1507eb
p4289
atp4290
Rp4291
sVatabase
p4292
g243
((lp4293
g449
atp4294
Rp4295
sVtabase
p4296
g243
((lp4297
g449
atp4298
Rp4299
sVabase
p4300
g243
((lp4301
g449
atp4302
Rp4303
sVdatab
p4304
g243
((lp4305
g449
atp4306
Rp4307
sVbase
p4308
g243
((lp4309
g946
ag1019
ag449
atp4310
Rp4311
sVdataba
p4312
g243
((lp4313
g449
atp4314
Rp4315
sVase
p4316
g243
((lp4317
g449
atp4318
Rp4319
sVdatabas
p4320
g243
((lp4321
g449
atp4322
Rp4323
sVimplementation
p4324
g243
((lp4325
Va15af5d0a4d049c594d61f2469a7dcbc
p4326
aV082cd50632274eb0b40fcc15d3339f88
p4327
aV74dd17d0bab34ea2ba20612c3b1507eb
p4328
aV4b2c183b69974fa3b1c1af98020bf156
p4329
atp4330
Rp4331
sVim
p4332
g243
((lp4333
g449
ag946
ag1019
ag1092
ag595
atp4334
Rp4335
sVmplementation
p4336
g243
((lp4337
g946
ag1019
ag449
ag1092
atp4338
Rp4339
sVimp
p4340
g243
((lp4341
g449
ag946
ag1019
ag1092
ag595
atp4342
Rp4343
sVplementation
p4344
g243
((lp4345
g946
ag1019
ag449
ag1092
atp4346
Rp4347
sVimpl
p4348
g243
((lp4349
g449
ag946
ag1019
ag1092
ag595
atp4350
Rp4351
sVlementation
p4352
g243
((lp4353
g946
ag1019
ag449
ag1092
atp4354
Rp4355
sVimple
p4356
g243
((lp4357
g449
ag946
ag1019
ag1092
ag595
atp4358
Rp4359
sVementation
p4360
g243
((lp4361
g946
ag1019
ag449
ag1092
atp4362
Rp4363
sVimplem
p4364
g243
((lp4365
g449
ag946
ag1019
ag1092
ag595
atp4366
Rp4367
sVimpleme
p4368
g243
((lp4369
g449
ag946
ag1019
ag1092
ag595
atp4370
Rp4371
sVimplemen
p4372
g243
((lp4373
g449
ag946
ag1019
ag1092
ag595
atp4374
Rp4375
sVimplement
p4376
g243
((lp4377
g449
ag946
ag1019
ag1092
ag595
atp4378
Rp4379
sVimplementa
p4380
g243
((lp4381
g449
ag946
ag1019
ag1092
ag595
atp4382
Rp4383
sVimplementat
p4384
g243
((lp4385
g946
ag1019
ag449
ag1092
atp4386
Rp4387
sVimplementati
p4388
g243
((lp4389
g946
ag1019
ag449
ag1092
atp4390
Rp4391
sVimplementatio
p4392
g243
((lp4393
g946
ag1019
ag449
ag1092
atp4394
Rp4395
sVrms-003
p4396
g243
((lp4397
V755951b2b64948b4a6ded24d1317f132
p4398
atp4399
Rp4400
sVms-003
p4401
g243
((lp4402
g522
atp4403
Rp4404
sVs-003
p4405
g243
((lp4406
g522
atp4407
Rp4408
sV-003
p4409
g243
((lp4410
g522
atp4411
Rp4412
sV003
p4413
g243
((lp4414
g522
atp4415
Rp4416
sV03
p4417
g243
((lp4418
g522
atp4419
Rp4420
sV3
p4421
g243
((lp4422
g522
atp4423
Rp4424
sVframework
p4425
g243
((lp4426
V755951b2b64948b4a6ded24d1317f132
p4427
atp4428
Rp4429
sVfr
p4430
g243
((lp4431
g595
ag1267
ag522
ag1092
atp4432
Rp4433
sVramework
p4434
g243
((lp4435
g522
atp4436
Rp4437
sVfra
p4438
g243
((lp4439
g522
atp4440
Rp4441
sVamework
p4442
g243
((lp4443
g522
atp4444
Rp4445
sVfram
p4446
g243
((lp4447
g522
atp4448
Rp4449
sVmework
p4450
g243
((lp4451
g522
atp4452
Rp4453
sVframe
p4454
g243
((lp4455
g522
atp4456
Rp4457
sVework
p4458
g243
((lp4459
g522
atp4460
Rp4461
sVframew
p4462
g243
((lp4463
g522
atp4464
Rp4465
sVwork
p4466
g243
((lp4467
g522
atp4468
Rp4469
sVframewo
p4470
g243
((lp4471
g522
atp4472
Rp4473
sVork
p4474
g243
((lp4475
g522
atp4476
Rp4477
sVframewor
p4478
g243
((lp4479
g522
atp4480
Rp4481
sVrk
p4482
g243
((lp4483
g522
atp4484
Rp4485
sVk
p4486
g243
((lp4487
g771
ag522
atp4488
Rp4489
sVmarking
p4490
g243
((lp4491
V755951b2b64948b4a6ded24d1317f132
p4492
ag844
atp4493
Rp4494
sVarking
p4495
g243
((lp4496
g522
ag844
atp4497
Rp4498
sVmar
p4499
g243
((lp4500
g522
ag844
atp4501
Rp4502
sVrking
p4503
g243
((lp4504
g522
ag844
atp4505
Rp4506
sVmark
p4507
g243
((lp4508
g522
ag844
atp4509
Rp4510
sVking
p4511
g243
((lp4512
g771
ag522
ag844
atp4513
Rp4514
sVmarki
p4515
g243
((lp4516
g522
ag844
atp4517
Rp4518
sVmarkin
p4519
g243
((lp4520
g522
ag844
atp4521
Rp4522
sVrail
p4523
g243
((lp4524
g771
ag522
atp4525
Rp4526
sVail
p4527
g243
((lp4528
g1267
ag771
ag522
atp4529
Rp4530
sVil
p4531
g243
((lp4532
g1267
ag771
ag522
atp4533
Rp4534
sVproper
p4535
g243
((lp4536
Vb2715842af9e45e996a9687a3e27a709
p4537
ag946
ag1019
aV755951b2b64948b4a6ded24d1317f132
p4538
aVcf525f283fb0402187572f7af68c46b9
p4539
aVaa3c723b5f0e4658bed2960a77fa8a6d
p4540
ag1267
atp4541
Rp4542
sVroper
p4543
g243
((lp4544
g698
ag522
ag844
ag595
ag1267
atp4545
Rp4546
sVoper
p4547
g243
((lp4548
g698
ag522
ag844
ag595
ag1267
atp4549
Rp4550
sVprop
p4551
g243
((lp4552
g698
ag946
ag1019
ag522
ag844
ag595
ag1267
atp4553
Rp4554
sVper
p4555
g243
((lp4556
g698
ag522
ag844
ag595
ag1267
atp4557
Rp4558
sVprope
p4559
g243
((lp4560
g698
ag946
ag1019
ag522
ag844
ag595
ag1267
atp4561
Rp4562
sVer
p4563
g243
((lp4564
g698
ag771
ag522
ag844
ag595
ag1267
atp4565
Rp4566
sVarms
p4567
g243
((lp4568
V755951b2b64948b4a6ded24d1317f132
p4569
atp4570
Rp4571
sVarm
p4572
g243
((lp4573
g522
atp4574
Rp4575
sVms
p4576
g243
((lp4577
g522
ag1092
atp4578
Rp4579
sVmaintenance
p4580
g243
((lp4581
Vc7ca7f3f64034ca9983bd6484fe655c2
p4582
aV755951b2b64948b4a6ded24d1317f132
p4583
atp4584
Rp4585
sVaintenance
p4586
g243
((lp4587
g771
ag522
atp4588
Rp4589
sVintenance
p4590
g243
((lp4591
g771
ag522
atp4592
Rp4593
sVntenance
p4594
g243
((lp4595
g771
ag522
atp4596
Rp4597
sVtenance
p4598
g243
((lp4599
g771
ag522
atp4600
Rp4601
sVmainte
p4602
g243
((lp4603
g771
ag522
atp4604
Rp4605
sVenance
p4606
g243
((lp4607
g771
ag522
atp4608
Rp4609
sVmainten
p4610
g243
((lp4611
g771
ag522
atp4612
Rp4613
sVnance
p4614
g243
((lp4615
g771
ag522
atp4616
Rp4617
sVmaintena
p4618
g243
((lp4619
g771
ag522
atp4620
Rp4621
sVmaintenan
p4622
g243
((lp4623
g771
ag522
atp4624
Rp4625
sVmaintenanc
p4626
g243
((lp4627
g771
ag522
atp4628
Rp4629
sVinternational
p4630
g243
((lp4631
V755951b2b64948b4a6ded24d1317f132
p4632
atp4633
Rp4634
sVnternational
p4635
g243
((lp4636
g522
atp4637
Rp4638
sVternational
p4639
g243
((lp4640
g522
atp4641
Rp4642
sVernational
p4643
g243
((lp4644
g522
atp4645
Rp4646
sVinter
p4647
g243
((lp4648
g522
atp4649
Rp4650
sVrnational
p4651
g243
((lp4652
g522
atp4653
Rp4654
sVintern
p4655
g243
((lp4656
g522
atp4657
Rp4658
sVnational
p4659
g243
((lp4660
g522
atp4661
Rp4662
sVinterna
p4663
g243
((lp4664
g522
atp4665
Rp4666
sVational
p4667
g243
((lp4668
g1194
ag522
atp4669
Rp4670
sVinternat
p4671
g243
((lp4672
g522
atp4673
Rp4674
sVtional
p4675
g243
((lp4676
g1194
ag522
ag1092
atp4677
Rp4678
sVinternati
p4679
g243
((lp4680
g522
atp4681
Rp4682
sVional
p4683
g243
((lp4684
g1194
ag522
ag1092
atp4685
Rp4686
sVinternatio
p4687
g243
((lp4688
g522
atp4689
Rp4690
sVonal
p4691
g243
((lp4692
g1194
ag522
ag1092
atp4693
Rp4694
sVinternation
p4695
g243
((lp4696
g522
atp4697
Rp4698
sVnal
p4699
g243
((lp4700
g1194
ag522
ag1092
atp4701
Rp4702
sVinternationa
p4703
g243
((lp4704
g522
atp4705
Rp4706
sVcomply
p4707
g243
((lp4708
Vea0ee14f2853485f964a51516f2fbd13
p4709
aV755951b2b64948b4a6ded24d1317f132
p4710
atp4711
Rp4712
sVomply
p4713
g243
((lp4714
g1267
ag522
atp4715
Rp4716
sVmply
p4717
g243
((lp4718
g1267
ag522
atp4719
Rp4720
sVply
p4721
g243
((lp4722
g1267
ag522
atp4723
Rp4724
sVly
p4725
g243
((lp4726
g698
ag946
ag1019
ag522
ag1267
atp4727
Rp4728
sVtraffic
p4729
g243
((lp4730
V755951b2b64948b4a6ded24d1317f132
p4731
atp4732
Rp4733
sVraffic
p4734
g243
((lp4735
g522
atp4736
Rp4737
sVaffic
p4738
g243
((lp4739
g522
atp4740
Rp4741
sVtraf
p4742
g243
((lp4743
g522
atp4744
Rp4745
sVffic
p4746
g243
((lp4747
g522
atp4748
Rp4749
sVtraff
p4750
g243
((lp4751
g522
atp4752
Rp4753
sVfic
p4754
g243
((lp4755
g698
ag522
atp4756
Rp4757
sVtraffi
p4758
g243
((lp4759
g522
atp4760
Rp4761
sVic
p4762
g243
((lp4763
g698
ag522
ag1019
atp4764
Rp4765
sVclassification
p4766
g243
((lp4767
Vea0ee14f2853485f964a51516f2fbd13
p4768
aV755951b2b64948b4a6ded24d1317f132
p4769
aVcf525f283fb0402187572f7af68c46b9
p4770
atp4771
Rp4772
sVcl
p4773
g243
((lp4774
g1267
ag946
ag522
ag844
atp4775
Rp4776
sVlassification
p4777
g243
((lp4778
g1267
ag522
ag844
atp4779
Rp4780
sVcla
p4781
g243
((lp4782
g1267
ag946
ag522
ag844
atp4783
Rp4784
sVassification
p4785
g243
((lp4786
g1267
ag522
ag844
atp4787
Rp4788
sVclas
p4789
g243
((lp4790
g1267
ag946
ag522
ag844
atp4791
Rp4792
sVssification
p4793
g243
((lp4794
g1267
ag522
ag844
atp4795
Rp4796
sVclass
p4797
g243
((lp4798
g1267
ag946
ag522
ag844
atp4799
Rp4800
sVsification
p4801
g243
((lp4802
g1267
ag522
ag844
atp4803
Rp4804
sVclassi
p4805
g243
((lp4806
g1267
ag946
ag522
ag844
atp4807
Rp4808
sVclassif
p4809
g243
((lp4810
g1267
ag946
ag522
ag844
atp4811
Rp4812
sVclassifi
p4813
g243
((lp4814
g1267
ag946
ag522
ag844
atp4815
Rp4816
sVclassific
p4817
g243
((lp4818
g1267
ag522
ag844
atp4819
Rp4820
sVclassifica
p4821
g243
((lp4822
g1267
ag522
ag844
atp4823
Rp4824
sVclassificat
p4825
g243
((lp4826
g1267
ag522
ag844
atp4827
Rp4828
sVclassificati
p4829
g243
((lp4830
g1267
ag522
ag844
atp4831
Rp4832
sVclassificatio
p4833
g243
((lp4834
g1267
ag522
ag844
atp4835
Rp4836
sVincluding
p4837
g243
((lp4838
Va15af5d0a4d049c594d61f2469a7dcbc
p4839
aV082cd50632274eb0b40fcc15d3339f88
p4840
aV755951b2b64948b4a6ded24d1317f132
p4841
atp4842
Rp4843
sVncluding
p4844
g243
((lp4845
g946
ag1019
ag522
atp4846
Rp4847
sVinc
p4848
g243
((lp4849
g946
ag1019
ag522
atp4850
Rp4851
sVcluding
p4852
g243
((lp4853
g946
ag1019
ag522
atp4854
Rp4855
sVincl
p4856
g243
((lp4857
g946
ag1019
ag522
atp4858
Rp4859
sVluding
p4860
g243
((lp4861
g946
ag1019
ag522
atp4862
Rp4863
sVinclu
p4864
g243
((lp4865
g946
ag1019
ag522
atp4866
Rp4867
sVuding
p4868
g243
((lp4869
g946
ag1019
ag522
atp4870
Rp4871
sVinclud
p4872
g243
((lp4873
g946
ag1019
ag522
atp4874
Rp4875
sVding
p4876
g243
((lp4877
g946
ag1019
ag522
atp4878
Rp4879
sVincludi
p4880
g243
((lp4881
g946
ag1019
ag522
atp4882
Rp4883
sVincludin
p4884
g243
((lp4885
g946
ag1019
ag522
atp4886
Rp4887
sVmay
p4888
g243
((lp4889
Vb2715842af9e45e996a9687a3e27a709
p4890
aV755951b2b64948b4a6ded24d1317f132
p4891
atp4892
Rp4893
sVay
p4894
g243
((lp4895
g698
ag522
atp4896
Rp4897
sVfailure
p4898
g243
((lp4899
V755951b2b64948b4a6ded24d1317f132
p4900
atp4901
Rp4902
sVfa
p4903
g243
((lp4904
g522
atp4905
Rp4906
sVailure
p4907
g243
((lp4908
g522
atp4909
Rp4910
sVfai
p4911
g243
((lp4912
g522
atp4913
Rp4914
sVilure
p4915
g243
((lp4916
g522
atp4917
Rp4918
sVfail
p4919
g243
((lp4920
g522
atp4921
Rp4922
sVlure
p4923
g243
((lp4924
g522
atp4925
Rp4926
sVfailu
p4927
g243
((lp4928
g522
atp4929
Rp4930
sVfailur
p4931
g243
((lp4932
g522
atp4933
Rp4934
sVmarked
p4935
g243
((lp4936
V755951b2b64948b4a6ded24d1317f132
p4937
aVcf525f283fb0402187572f7af68c46b9
p4938
atp4939
Rp4940
sVarked
p4941
g243
((lp4942
g522
ag844
atp4943
Rp4944
sVrked
p4945
g243
((lp4946
g522
ag844
atp4947
Rp4948
sVked
p4949
g243
((lp4950
g522
ag844
atp4951
Rp4952
sVmarke
p4953
g243
((lp4954
g522
ag844
atp4955
Rp4956
sVmandate
p4957
g243
((lp4958
V755951b2b64948b4a6ded24d1317f132
p4959
atp4960
Rp4961
sVandate
p4962
g243
((lp4963
g522
atp4964
Rp4965
sVndate
p4966
g243
((lp4967
g522
atp4968
Rp4969
sVmand
p4970
g243
((lp4971
g522
atp4972
Rp4973
sVdate
p4974
g243
((lp4975
g522
atp4976
Rp4977
sVmanda
p4978
g243
((lp4979
g522
atp4980
Rp4981
sVate
p4982
g243
((lp4983
g1194
ag771
ag522
ag844
atp4984
Rp4985
sVmandat
p4986
g243
((lp4987
g522
atp4988
Rp4989
sVfines
p4990
g243
((lp4991
V755951b2b64948b4a6ded24d1317f132
p4992
atp4993
Rp4994
sVfi
p4995
g243
((lp4996
g522
atp4997
Rp4998
sVines
p4999
g243
((lp5000
g522
atp5001
Rp5002
sVfin
p5003
g243
((lp5004
g522
atp5005
Rp5006
sVnes
p5007
g243
((lp5008
g522
atp5009
Rp5010
sVfine
p5011
g243
((lp5012
g522
atp5013
Rp5014
sVprosecution
p5015
g243
((lp5016
V755951b2b64948b4a6ded24d1317f132
p5017
atp5018
Rp5019
sVrosecution
p5020
g243
((lp5021
g522
atp5022
Rp5023
sVosecution
p5024
g243
((lp5025
g522
atp5026
Rp5027
sVpros
p5028
g243
((lp5029
g522
atp5030
Rp5031
sVsecution
p5032
g243
((lp5033
g522
atp5034
Rp5035
sVprose
p5036
g243
((lp5037
g522
atp5038
Rp5039
sVecution
p5040
g243
((lp5041
g522
atp5042
Rp5043
sVprosec
p5044
g243
((lp5045
g522
atp5046
Rp5047
sVcution
p5048
g243
((lp5049
g522
atp5050
Rp5051
sVprosecu
p5052
g243
((lp5053
g522
atp5054
Rp5055
sVution
p5056
g243
((lp5057
g522
atp5058
Rp5059
sVprosecut
p5060
g243
((lp5061
g522
atp5062
Rp5063
sVprosecuti
p5064
g243
((lp5065
g522
atp5066
Rp5067
sVprosecutio
p5068
g243
((lp5069
g522
atp5070
Rp5071
sVresult
p5072
g243
((lp5073
V755951b2b64948b4a6ded24d1317f132
p5074
atp5075
Rp5076
sVesult
p5077
g243
((lp5078
g522
atp5079
Rp5080
sVsult
p5081
g243
((lp5082
g522
atp5083
Rp5084
sVresu
p5085
g243
((lp5086
g522
atp5087
Rp5088
sVult
p5089
g243
((lp5090
g522
atp5091
Rp5092
sVresul
p5093
g243
((lp5094
g522
atp5095
Rp5096
sVlt
p5097
g243
((lp5098
g522
atp5099
Rp5100
sVcriminal
p5101
g243
((lp5102
V755951b2b64948b4a6ded24d1317f132
p5103
atp5104
Rp5105
sVcr
p5106
g243
((lp5107
g1267
ag522
atp5108
Rp5109
sVriminal
p5110
g243
((lp5111
g522
atp5112
Rp5113
sVcri
p5114
g243
((lp5115
g522
atp5116
Rp5117
sViminal
p5118
g243
((lp5119
g522
atp5120
Rp5121
sVcrim
p5122
g243
((lp5123
g522
atp5124
Rp5125
sVminal
p5126
g243
((lp5127
g522
atp5128
Rp5129
sVcrimi
p5130
g243
((lp5131
g522
atp5132
Rp5133
sVinal
p5134
g243
((lp5135
g522
atp5136
Rp5137
sVcrimin
p5138
g243
((lp5139
g522
atp5140
Rp5141
sVcrimina
p5142
g243
((lp5143
g522
atp5144
Rp5145
sVpenalties
p5146
g243
((lp5147
V755951b2b64948b4a6ded24d1317f132
p5148
atp5149
Rp5150
sVpe
p5151
g243
((lp5152
g1267
ag698
ag522
ag844
atp5153
Rp5154
sVenalties
p5155
g243
((lp5156
g522
atp5157
Rp5158
sVpen
p5159
g243
((lp5160
g522
atp5161
Rp5162
sVnalties
p5163
g243
((lp5164
g522
atp5165
Rp5166
sVpena
p5167
g243
((lp5168
g522
atp5169
Rp5170
sValties
p5171
g243
((lp5172
g522
atp5173
Rp5174
sVpenal
p5175
g243
((lp5176
g522
atp5177
Rp5178
sVlties
p5179
g243
((lp5180
g522
atp5181
Rp5182
sVpenalt
p5183
g243
((lp5184
g522
atp5185
Rp5186
sVpenalti
p5187
g243
((lp5188
g522
atp5189
Rp5190
sVpenaltie
p5191
g243
((lp5192
g522
atp5193
Rp5194
sVproperly
p5195
g243
((lp5196
Vea0ee14f2853485f964a51516f2fbd13
p5197
aVa15af5d0a4d049c594d61f2469a7dcbc
p5198
aV082cd50632274eb0b40fcc15d3339f88
p5199
aV755951b2b64948b4a6ded24d1317f132
p5200
atp5201
Rp5202
sVroperly
p5203
g243
((lp5204
g1267
ag946
ag1019
ag522
atp5205
Rp5206
sVoperly
p5207
g243
((lp5208
g1267
ag946
ag1019
ag522
atp5209
Rp5210
sVperly
p5211
g243
((lp5212
g1267
ag946
ag1019
ag522
atp5213
Rp5214
sVerly
p5215
g243
((lp5216
g1267
ag946
ag1019
ag522
atp5217
Rp5218
sVrly
p5219
g243
((lp5220
g1267
ag946
ag1019
ag522
atp5221
Rp5222
sVproperl
p5223
g243
((lp5224
g1267
ag946
ag1019
ag522
atp5225
Rp5226
sVsevere
p5227
g243
((lp5228
V755951b2b64948b4a6ded24d1317f132
p5229
atp5230
Rp5231
sVevere
p5232
g243
((lp5233
g522
atp5234
Rp5235
sVsev
p5236
g243
((lp5237
g522
atp5238
Rp5239
sVvere
p5240
g243
((lp5241
g522
atp5242
Rp5243
sVseve
p5244
g243
((lp5245
g522
atp5246
Rp5247
sVere
p5248
g243
((lp5249
g522
atp5250
Rp5251
sVsever
p5252
g243
((lp5253
g522
atp5254
Rp5255
sVbe
p5256
g243
((lp5257
Vb2715842af9e45e996a9687a3e27a709
p5258
aVc7ca7f3f64034ca9983bd6484fe655c2
p5259
ag946
aV082cd50632274eb0b40fcc15d3339f88
p5260
aV755951b2b64948b4a6ded24d1317f132
p5261
ag1092
aVcf525f283fb0402187572f7af68c46b9
p5262
ag595
aVea0ee14f2853485f964a51516f2fbd13
p5263
atp5264
Rp5265
sVb
p5266
g243
((lp5267
g698
ag771
ag946
ag1194
ag1019
ag522
ag1092
ag844
ag595
ag1267
atp5268
Rp5269
sVthat
p5270
g243
((lp5271
V082cd50632274eb0b40fcc15d3339f88
p5272
aV755951b2b64948b4a6ded24d1317f132
p5273
atp5274
Rp5275
sVhat
p5276
g243
((lp5277
g1019
ag522
atp5278
Rp5279
sVtha
p5280
g243
((lp5281
g1019
ag522
atp5282
Rp5283
sVat
p5284
g243
((lp5285
g1267
ag1019
ag522
atp5286
Rp5287
sVdocuments
p5288
g243
((lp5289
Vaa3c723b5f0e4658bed2960a77fa8a6d
p5290
aV755951b2b64948b4a6ded24d1317f132
p5291
aVcf525f283fb0402187572f7af68c46b9
p5292
atp5293
Rp5294
sVocuments
p5295
g243
((lp5296
g595
ag522
ag844
atp5297
Rp5298
sVcuments
p5299
g243
((lp5300
g595
ag522
ag844
atp5301
Rp5302
sVuments
p5303
g243
((lp5304
g595
ag522
ag844
atp5305
Rp5306
sVprocedures
p5307
g243
((lp5308
V755951b2b64948b4a6ded24d1317f132
p5309
atp5310
Rp5311
sVrocedures
p5312
g243
((lp5313
g522
atp5314
Rp5315
sVocedures
p5316
g243
((lp5317
g522
atp5318
Rp5319
sVproc
p5320
g243
((lp5321
g1194
ag946
ag1019
ag522
atp5322
Rp5323
sVcedures
p5324
g243
((lp5325
g522
atp5326
Rp5327
sVproce
p5328
g243
((lp5329
g1194
ag946
ag1019
ag522
atp5330
Rp5331
sVedures
p5332
g243
((lp5333
g522
atp5334
Rp5335
sVproced
p5336
g243
((lp5337
g522
atp5338
Rp5339
sVdures
p5340
g243
((lp5341
g522
atp5342
Rp5343
sVprocedu
p5344
g243
((lp5345
g522
atp5346
Rp5347
sVprocedur
p5348
g243
((lp5349
g522
atp5350
Rp5351
sVprocedure
p5352
g243
((lp5353
g522
atp5354
Rp5355
sVmarkings
p5356
g243
((lp5357
V755951b2b64948b4a6ded24d1317f132
p5358
aVcf525f283fb0402187572f7af68c46b9
p5359
atp5360
Rp5361
sVarkings
p5362
g243
((lp5363
g522
ag844
atp5364
Rp5365
sVrkings
p5366
g243
((lp5367
g522
ag844
atp5368
Rp5369
sVkings
p5370
g243
((lp5371
g522
ag844
atp5372
Rp5373
sVings
p5374
g243
((lp5375
g522
ag844
atp5376
Rp5377
sVngs
p5378
g243
((lp5379
g522
ag844
atp5380
Rp5381
sVgs
p5382
g243
((lp5383
g698
ag771
ag522
ag844
atp5384
Rp5385
sVrms-004
p5386
g243
((lp5387
Vaa3c723b5f0e4658bed2960a77fa8a6d
p5388
atp5389
Rp5390
sVms-004
p5391
g243
((lp5392
g595
atp5393
Rp5394
sVs-004
p5395
g243
((lp5396
g595
atp5397
Rp5398
sV-004
p5399
g243
((lp5400
g595
atp5401
Rp5402
sV004
p5403
g243
((lp5404
g595
atp5405
Rp5406
sV04
p5407
g243
((lp5408
g595
atp5409
Rp5410
sV4
p5411
g243
((lp5412
g595
atp5413
Rp5414
sVocument
p5415
g243
((lp5416
g595
atp5417
Rp5418
sVcument
p5419
g243
((lp5420
g595
atp5421
Rp5422
sVument
p5423
g243
((lp5424
g595
atp5425
Rp5426
sVhierarchy
p5427
g243
((lp5428
Vaa3c723b5f0e4658bed2960a77fa8a6d
p5429
atp5430
Rp5431
sVhi
p5432
g243
((lp5433
g595
atp5434
Rp5435
sVierarchy
p5436
g243
((lp5437
g595
atp5438
Rp5439
sVhie
p5440
g243
((lp5441
g595
atp5442
Rp5443
sVerarchy
p5444
g243
((lp5445
g595
atp5446
Rp5447
sVhier
p5448
g243
((lp5449
g595
atp5450
Rp5451
sVrarchy
p5452
g243
((lp5453
g595
atp5454
Rp5455
sVhiera
p5456
g243
((lp5457
g595
atp5458
Rp5459
sVarchy
p5460
g243
((lp5461
g595
atp5462
Rp5463
sVhierar
p5464
g243
((lp5465
g595
atp5466
Rp5467
sVrchy
p5468
g243
((lp5469
g595
atp5470
Rp5471
sVhierarc
p5472
g243
((lp5473
g595
atp5474
Rp5475
sVchy
p5476
g243
((lp5477
g595
atp5478
Rp5479
sVhierarch
p5480
g243
((lp5481
g595
atp5482
Rp5483
sVhy
p5484
g243
((lp5485
g595
atp5486
Rp5487
sVsrd
p5488
g243
((lp5489
Vaa3c723b5f0e4658bed2960a77fa8a6d
p5490
atp5491
Rp5492
sVsr
p5493
g243
((lp5494
g595
atp5495
Rp5496
sVrd
p5497
g243
((lp5498
g595
atp5499
Rp5500
sVhierarchical
p5501
g243
((lp5502
Vaa3c723b5f0e4658bed2960a77fa8a6d
p5503
atp5504
Rp5505
sVierarchical
p5506
g243
((lp5507
g595
atp5508
Rp5509
sVerarchical
p5510
g243
((lp5511
g595
atp5512
Rp5513
sVrarchical
p5514
g243
((lp5515
g595
atp5516
Rp5517
sVarchical
p5518
g243
((lp5519
g595
atp5520
Rp5521
sVrchical
p5522
g243
((lp5523
g595
atp5524
Rp5525
sVchical
p5526
g243
((lp5527
g595
atp5528
Rp5529
sVhical
p5530
g243
((lp5531
g595
atp5532
Rp5533
sVhierarchi
p5534
g243
((lp5535
g595
atp5536
Rp5537
sVhierarchic
p5538
g243
((lp5539
g595
atp5540
Rp5541
sVhierarchica
p5542
g243
((lp5543
g595
atp5544
Rp5545
sVdesign
p5546
g243
((lp5547
Vaa3c723b5f0e4658bed2960a77fa8a6d
p5548
ag1194
aV4b2c183b69974fa3b1c1af98020bf156
p5549
atp5550
Rp5551
sVesign
p5552
g243
((lp5553
g595
ag1092
atp5554
Rp5555
sVsign
p5556
g243
((lp5557
g595
ag1092
atp5558
Rp5559
sVdesi
p5560
g243
((lp5561
g595
ag1194
ag1092
atp5562
Rp5563
sVign
p5564
g243
((lp5565
g595
ag1092
atp5566
Rp5567
sVdesig
p5568
g243
((lp5569
g595
ag1194
ag1092
atp5570
Rp5571
sVgn
p5572
g243
((lp5573
g595
ag1092
atp5574
Rp5575
sVbetween
p5576
g243
((lp5577
Vaa3c723b5f0e4658bed2960a77fa8a6d
p5578
aV4b2c183b69974fa3b1c1af98020bf156
p5579
atp5580
Rp5581
sVetween
p5582
g243
((lp5583
g595
ag1092
atp5584
Rp5585
sVbet
p5586
g243
((lp5587
g595
ag1092
atp5588
Rp5589
sVtween
p5590
g243
((lp5591
g595
ag1092
atp5592
Rp5593
sVbetw
p5594
g243
((lp5595
g595
ag1092
atp5596
Rp5597
sVween
p5598
g243
((lp5599
g595
ag1092
atp5600
Rp5601
sVbetwe
p5602
g243
((lp5603
g595
ag1092
atp5604
Rp5605
sVeen
p5606
g243
((lp5607
g595
ag1092
atp5608
Rp5609
sVbetwee
p5610
g243
((lp5611
g595
ag1092
atp5612
Rp5613
sVsoftware
p5614
g243
((lp5615
Vaa3c723b5f0e4658bed2960a77fa8a6d
p5616
aV4b2c183b69974fa3b1c1af98020bf156
p5617
atp5618
Rp5619
sVso
p5620
g243
((lp5621
g595
ag946
ag1092
atp5622
Rp5623
sVoftware
p5624
g243
((lp5625
g595
ag1092
atp5626
Rp5627
sVsof
p5628
g243
((lp5629
g595
ag1092
atp5630
Rp5631
sVftware
p5632
g243
((lp5633
g595
ag1092
atp5634
Rp5635
sVsoft
p5636
g243
((lp5637
g595
ag1092
atp5638
Rp5639
sVtware
p5640
g243
((lp5641
g595
ag1092
atp5642
Rp5643
sVsoftw
p5644
g243
((lp5645
g595
ag1092
atp5646
Rp5647
sVware
p5648
g243
((lp5649
g595
ag1092
atp5650
Rp5651
sVsoftwa
p5652
g243
((lp5653
g595
ag1092
atp5654
Rp5655
sVare
p5656
g243
((lp5657
Va15af5d0a4d049c594d61f2469a7dcbc
p5658
aV082cd50632274eb0b40fcc15d3339f88
p5659
ag1092
ag595
aVea0ee14f2853485f964a51516f2fbd13
p5660
atp5661
Rp5662
sVsoftwar
p5663
g243
((lp5664
g595
ag1092
atp5665
Rp5666
sVaintain
p5667
g243
((lp5668
g595
ag771
ag1092
atp5669
Rp5670
sVintain
p5671
g243
((lp5672
g595
ag771
ag1092
atp5673
Rp5674
sVntain
p5675
g243
((lp5676
g595
ag771
ag1092
atp5677
Rp5678
sVtain
p5679
g243
((lp5680
g595
ag771
ag1092
atp5681
Rp5682
sVain
p5683
g243
((lp5684
g595
ag771
ag1092
atp5685
Rp5686
sVsdd
p5687
g243
((lp5688
Vaa3c723b5f0e4658bed2960a77fa8a6d
p5689
atp5690
Rp5691
sVsd
p5692
g243
((lp5693
g595
atp5694
Rp5695
sVdd
p5696
g243
((lp5697
g595
atp5698
Rp5699
sVlevels
p5700
g243
((lp5701
Vaa3c723b5f0e4658bed2960a77fa8a6d
p5702
atp5703
Rp5704
sVevels
p5705
g243
((lp5706
g595
atp5707
Rp5708
sVlev
p5709
g243
((lp5710
g595
atp5711
Rp5712
sVvels
p5713
g243
((lp5714
g595
atp5715
Rp5716
sVleve
p5717
g243
((lp5718
g595
atp5719
Rp5720
sVels
p5721
g243
((lp5722
g595
atp5723
Rp5724
sVlevel
p5725
g243
((lp5726
g595
atp5727
Rp5728
sVcomplete
p5729
g243
((lp5730
g698
aVc7ca7f3f64034ca9983bd6484fe655c2
p5731
aV4b2c183b69974fa3b1c1af98020bf156
p5732
aVaa3c723b5f0e4658bed2960a77fa8a6d
p5733
aVea0ee14f2853485f964a51516f2fbd13
p5734
atp5735
Rp5736
sVomplete
p5737
g243
((lp5738
g595
ag1267
ag771
ag1092
atp5739
Rp5740
sVmplete
p5741
g243
((lp5742
g595
ag1267
ag771
ag1092
atp5743
Rp5744
sVplete
p5745
g243
((lp5746
g595
ag1267
ag771
ag1092
atp5747
Rp5748
sVlete
p5749
g243
((lp5750
g595
ag1267
ag771
ag1092
atp5751
Rp5752
sVcomple
p5753
g243
((lp5754
g698
ag771
ag1092
ag595
ag1267
atp5755
Rp5756
sVete
p5757
g243
((lp5758
g595
ag1267
ag771
ag1092
atp5759
Rp5760
sVcomplet
p5761
g243
((lp5762
g698
ag771
ag1092
ag595
ag1267
atp5763
Rp5764
sVys
p5765
g243
((lp5766
g595
atp5767
Rp5768
sVconsisting
p5769
g243
((lp5770
Vaa3c723b5f0e4658bed2960a77fa8a6d
p5771
atp5772
Rp5773
sVonsisting
p5774
g243
((lp5775
g595
atp5776
Rp5777
sVnsisting
p5778
g243
((lp5779
g595
atp5780
Rp5781
sVcons
p5782
g243
((lp5783
g595
ag1194
ag1019
atp5784
Rp5785
sVsisting
p5786
g243
((lp5787
g595
atp5788
Rp5789
sVconsi
p5790
g243
((lp5791
g595
ag1194
atp5792
Rp5793
sVisting
p5794
g243
((lp5795
g595
atp5796
Rp5797
sVconsis
p5798
g243
((lp5799
g595
ag1194
atp5800
Rp5801
sVsting
p5802
g243
((lp5803
g595
atp5804
Rp5805
sVconsist
p5806
g243
((lp5807
g595
ag1194
atp5808
Rp5809
sVting
p5810
g243
((lp5811
g771
ag946
ag1092
ag595
ag1267
atp5812
Rp5813
sVconsisti
p5814
g243
((lp5815
g595
atp5816
Rp5817
sVconsistin
p5818
g243
((lp5819
g595
atp5820
Rp5821
sVstructure
p5822
g243
((lp5823
Vaa3c723b5f0e4658bed2960a77fa8a6d
p5824
atp5825
Rp5826
sVtructure
p5827
g243
((lp5828
g595
atp5829
Rp5830
sVructure
p5831
g243
((lp5832
g595
atp5833
Rp5834
sVstru
p5835
g243
((lp5836
g595
atp5837
Rp5838
sVucture
p5839
g243
((lp5840
g595
atp5841
Rp5842
sVstruc
p5843
g243
((lp5844
g595
atp5845
Rp5846
sVstruct
p5847
g243
((lp5848
g595
atp5849
Rp5850
sVstructu
p5851
g243
((lp5852
g595
atp5853
Rp5854
sVstructur
p5855
g243
((lp5856
g595
atp5857
Rp5858
sVlifecycle
p5859
g243
((lp5860
Vaa3c723b5f0e4658bed2960a77fa8a6d
p5861
aV46cb3267795248b68b272751196f2eb5
p5862
atp5863
Rp5864
sVifecycle
p5865
g243
((lp5866
g595
ag1103
atp5867
Rp5868
sVlif
p5869
g243
((lp5870
g595
ag1103
atp5871
Rp5872
sVfecycle
p5873
g243
((lp5874
g595
ag1103
atp5875
Rp5876
sVlife
p5877
g243
((lp5878
g595
ag1103
atp5879
Rp5880
sVecycle
p5881
g243
((lp5882
g595
ag1103
atp5883
Rp5884
sVlifec
p5885
g243
((lp5886
g595
ag1103
atp5887
Rp5888
sVcycle
p5889
g243
((lp5890
g595
ag1103
atp5891
Rp5892
sVlifecy
p5893
g243
((lp5894
g595
ag1103
atp5895
Rp5896
sVycle
p5897
g243
((lp5898
g595
ag1103
atp5899
Rp5900
sVlifecyc
p5901
g243
((lp5902
g595
ag1103
atp5903
Rp5904
sVcle
p5905
g243
((lp5906
g595
ag1267
ag1103
atp5907
Rp5908
sVlifecycl
p5909
g243
((lp5910
g595
ag1103
atp5911
Rp5912
sVdevelopment
p5913
g243
((lp5914
Vaa3c723b5f0e4658bed2960a77fa8a6d
p5915
aV4b2c183b69974fa3b1c1af98020bf156
p5916
atp5917
Rp5918
sVevelopment
p5919
g243
((lp5920
g595
ag1092
atp5921
Rp5922
sVdev
p5923
g243
((lp5924
g595
ag1092
atp5925
Rp5926
sVvelopment
p5927
g243
((lp5928
g595
ag1092
atp5929
Rp5930
sVdeve
p5931
g243
((lp5932
g595
ag1092
atp5933
Rp5934
sVelopment
p5935
g243
((lp5936
g595
ag1092
atp5937
Rp5938
sVdevel
p5939
g243
((lp5940
g595
ag1092
atp5941
Rp5942
sVlopment
p5943
g243
((lp5944
g595
ag1092
atp5945
Rp5946
sVdevelo
p5947
g243
((lp5948
g595
ag1092
atp5949
Rp5950
sVopment
p5951
g243
((lp5952
g595
ag1092
atp5953
Rp5954
sVdevelop
p5955
g243
((lp5956
g595
ag1092
atp5957
Rp5958
sVpment
p5959
g243
((lp5960
g595
ag1092
atp5961
Rp5962
sVdevelopm
p5963
g243
((lp5964
g595
ag1092
atp5965
Rp5966
sVdevelopme
p5967
g243
((lp5968
g595
ag1092
atp5969
Rp5970
sVdevelopmen
p5971
g243
((lp5972
g595
ag1092
atp5973
Rp5974
sVdecomposition
p5975
g243
((lp5976
Vaa3c723b5f0e4658bed2960a77fa8a6d
p5977
atp5978
Rp5979
sVecomposition
p5980
g243
((lp5981
g595
atp5982
Rp5983
sVdec
p5984
g243
((lp5985
g595
atp5986
Rp5987
sVcomposition
p5988
g243
((lp5989
g595
atp5990
Rp5991
sVdeco
p5992
g243
((lp5993
g595
atp5994
Rp5995
sVomposition
p5996
g243
((lp5997
g595
atp5998
Rp5999
sVdecom
p6000
g243
((lp6001
g595
atp6002
Rp6003
sVmposition
p6004
g243
((lp6005
g595
atp6006
Rp6007
sVdecomp
p6008
g243
((lp6009
g595
atp6010
Rp6011
sVposition
p6012
g243
((lp6013
g595
atp6014
Rp6015
sVdecompo
p6016
g243
((lp6017
g595
atp6018
Rp6019
sVosition
p6020
g243
((lp6021
g595
atp6022
Rp6023
sVdecompos
p6024
g243
((lp6025
g595
atp6026
Rp6027
sVsition
p6028
g243
((lp6029
g595
atp6030
Rp6031
sVdecomposi
p6032
g243
((lp6033
g595
atp6034
Rp6035
sVition
p6036
g243
((lp6037
g595
atp6038
Rp6039
sVdecomposit
p6040
g243
((lp6041
g595
atp6042
Rp6043
sVdecompositi
p6044
g243
((lp6045
g595
atp6046
Rp6047
sVdecompositio
p6048
g243
((lp6049
g595
atp6050
Rp6051
sVimplementable
p6052
g243
((lp6053
Vaa3c723b5f0e4658bed2960a77fa8a6d
p6054
atp6055
Rp6056
sVmplementable
p6057
g243
((lp6058
g595
atp6059
Rp6060
sVplementable
p6061
g243
((lp6062
g595
atp6063
Rp6064
sVlementable
p6065
g243
((lp6066
g595
atp6067
Rp6068
sVementable
p6069
g243
((lp6070
g595
atp6071
Rp6072
sVmentable
p6073
g243
((lp6074
g595
atp6075
Rp6076
sVentable
p6077
g243
((lp6078
g595
atp6079
Rp6080
sVntable
p6081
g243
((lp6082
g595
atp6083
Rp6084
sVimplementab
p6085
g243
((lp6086
g595
atp6087
Rp6088
sVimplementabl
p6089
g243
((lp6090
g595
atp6091
Rp6092
sVinto
p6093
g243
((lp6094
Vaa3c723b5f0e4658bed2960a77fa8a6d
p6095
atp6096
Rp6097
sVnto
p6098
g243
((lp6099
g595
atp6100
Rp6101
sVthroughout
p6102
g243
((lp6103
Vaa3c723b5f0e4658bed2960a77fa8a6d
p6104
atp6105
Rp6106
sVhroughout
p6107
g243
((lp6108
g595
atp6109
Rp6110
sVroughout
p6111
g243
((lp6112
g595
atp6113
Rp6114
sVoughout
p6115
g243
((lp6116
g595
atp6117
Rp6118
sVughout
p6119
g243
((lp6120
g595
atp6121
Rp6122
sVghout
p6123
g243
((lp6124
g595
atp6125
Rp6126
sVhout
p6127
g243
((lp6128
g595
atp6129
Rp6130
sVthrougho
p6131
g243
((lp6132
g595
atp6133
Rp6134
sVout
p6135
g243
((lp6136
g595
atp6137
Rp6138
sVthroughou
p6139
g243
((lp6140
g595
atp6141
Rp6142
sVensuring
p6143
g243
((lp6144
Vaa3c723b5f0e4658bed2960a77fa8a6d
p6145
aVea0ee14f2853485f964a51516f2fbd13
p6146
atp6147
Rp6148
sVnsuring
p6149
g243
((lp6150
g595
ag1267
atp6151
Rp6152
sVsuring
p6153
g243
((lp6154
g595
ag1267
atp6155
Rp6156
sVuring
p6157
g243
((lp6158
g595
ag1267
atp6159
Rp6160
sVring
p6161
g243
((lp6162
g595
ag1267
atp6163
Rp6164
sVensuri
p6165
g243
((lp6166
g595
ag1267
atp6167
Rp6168
sVensurin
p6169
g243
((lp6170
g595
ag1267
atp6171
Rp6172
sVenables
p6173
g243
((lp6174
Vaa3c723b5f0e4658bed2960a77fa8a6d
p6175
aV4b2c183b69974fa3b1c1af98020bf156
p6176
atp6177
Rp6178
sVnables
p6179
g243
((lp6180
g595
ag1092
atp6181
Rp6182
sVena
p6183
g243
((lp6184
g595
ag1092
atp6185
Rp6186
sVables
p6187
g243
((lp6188
g595
ag1092
atp6189
Rp6190
sVenab
p6191
g243
((lp6192
g595
ag1092
atp6193
Rp6194
sVbles
p6195
g243
((lp6196
g595
ag1092
atp6197
Rp6198
sVenabl
p6199
g243
((lp6200
g595
ag1092
atp6201
Rp6202
sVenable
p6203
g243
((lp6204
g595
ag1092
atp6205
Rp6206
sVhigh-level
p6207
g243
((lp6208
Vaa3c723b5f0e4658bed2960a77fa8a6d
p6209
atp6210
Rp6211
sVigh-level
p6212
g243
((lp6213
g595
atp6214
Rp6215
sVhig
p6216
g243
((lp6217
g595
atp6218
Rp6219
sVgh-level
p6220
g243
((lp6221
g595
atp6222
Rp6223
sVhigh
p6224
g243
((lp6225
g595
atp6226
Rp6227
sVh-level
p6228
g243
((lp6229
g595
atp6230
Rp6231
sVhigh-
p6232
g243
((lp6233
g595
atp6234
Rp6235
sV-level
p6236
g243
((lp6237
g595
atp6238
Rp6239
sVhigh-l
p6240
g243
((lp6241
g595
atp6242
Rp6243
sVhigh-le
p6244
g243
((lp6245
g595
atp6246
Rp6247
sVevel
p6248
g243
((lp6249
g595
atp6250
Rp6251
sVhigh-lev
p6252
g243
((lp6253
g595
atp6254
Rp6255
sVvel
p6256
g243
((lp6257
g595
atp6258
Rp6259
sVhigh-leve
p6260
g243
((lp6261
g595
atp6262
Rp6263
sVel
p6264
g243
((lp6265
g595
ag1267
ag698
ag844
atp6266
Rp6267
sVcoverage
p6268
g243
((lp6269
Vaa3c723b5f0e4658bed2960a77fa8a6d
p6270
aV4b2c183b69974fa3b1c1af98020bf156
p6271
atp6272
Rp6273
sVoverage
p6274
g243
((lp6275
g595
ag1092
atp6276
Rp6277
sVcov
p6278
g243
((lp6279
g595
ag1092
atp6280
Rp6281
sVverage
p6282
g243
((lp6283
g595
ag1092
atp6284
Rp6285
sVcove
p6286
g243
((lp6287
g595
ag1092
atp6288
Rp6289
sVerage
p6290
g243
((lp6291
g595
ag1092
atp6292
Rp6293
sVcover
p6294
g243
((lp6295
g595
ag1092
atp6296
Rp6297
sVrage
p6298
g243
((lp6299
g595
ag1092
atp6300
Rp6301
sVcovera
p6302
g243
((lp6303
g595
ag1092
atp6304
Rp6305
sVage
p6306
g243
((lp6307
g595
ag1194
ag1092
atp6308
Rp6309
sVcoverag
p6310
g243
((lp6311
g595
ag1092
atp6312
Rp6313
sVshowing
p6314
g243
((lp6315
Vaa3c723b5f0e4658bed2960a77fa8a6d
p6316
atp6317
Rp6318
sVhowing
p6319
g243
((lp6320
g595
atp6321
Rp6322
sVsho
p6323
g243
((lp6324
g595
atp6325
Rp6326
sVowing
p6327
g243
((lp6328
g595
atp6329
Rp6330
sVshow
p6331
g243
((lp6332
g595
atp6333
Rp6334
sVwing
p6335
g243
((lp6336
g595
atp6337
Rp6338
sVshowi
p6339
g243
((lp6340
g595
atp6341
Rp6342
sVshowin
p6343
g243
((lp6344
g595
atp6345
Rp6346
sVmatrix
p6347
g243
((lp6348
Vaa3c723b5f0e4658bed2960a77fa8a6d
p6349
atp6350
Rp6351
sVatrix
p6352
g243
((lp6353
g595
atp6354
Rp6355
sVmat
p6356
g243
((lp6357
g595
ag1092
atp6358
Rp6359
sVtrix
p6360
g243
((lp6361
g595
atp6362
Rp6363
sVmatr
p6364
g243
((lp6365
g595
ag1092
atp6366
Rp6367
sVrix
p6368
g243
((lp6369
g595
atp6370
Rp6371
sVmatri
p6372
g243
((lp6373
g595
ag1092
atp6374
Rp6375
sVix
p6376
g243
((lp6377
g595
atp6378
Rp6379
sVx
p6380
g243
((lp6381
g595
atp6382
Rp6383
sVfrom
p6384
g243
((lp6385
Vaa3c723b5f0e4658bed2960a77fa8a6d
p6386
aVea0ee14f2853485f964a51516f2fbd13
p6387
aV4b2c183b69974fa3b1c1af98020bf156
p6388
atp6389
Rp6390
sVrom
p6391
g243
((lp6392
g595
ag1267
ag1092
atp6393
Rp6394
sVfro
p6395
g243
((lp6396
g595
ag1267
ag1092
atp6397
Rp6398
sVom
p6399
g243
((lp6400
g595
ag1267
ag1092
atp6401
Rp6402
sVrms-acc
p6403
g243
((lp6404
V87b54b1b7084421b8459731c87f4e90e
p6405
atp6406
Rp6407
sVms-acc
p6408
g243
((lp6409
g855
atp6410
Rp6411
sVs-acc
p6412
g243
((lp6413
g855
atp6414
Rp6415
sV-acc
p6416
g243
((lp6417
g855
atp6418
Rp6419
sVrms-a
p6420
g243
((lp6421
g855
atp6422
Rp6423
sVrms-ac
p6424
g243
((lp6425
g855
atp6426
Rp6427
sVcc
p6428
g243
((lp6429
g855
atp6430
Rp6431
sVsecurity
p6432
g243
((lp6433
Va15af5d0a4d049c594d61f2469a7dcbc
p6434
aV082cd50632274eb0b40fcc15d3339f88
p6435
aV87b54b1b7084421b8459731c87f4e90e
p6436
atp6437
Rp6438
sVecurity
p6439
g243
((lp6440
g946
ag1019
ag855
atp6441
Rp6442
sVsec
p6443
g243
((lp6444
g946
ag1019
ag855
atp6445
Rp6446
sVcurity
p6447
g243
((lp6448
g946
ag1019
ag855
atp6449
Rp6450
sVsecu
p6451
g243
((lp6452
g946
ag1019
ag855
atp6453
Rp6454
sVurity
p6455
g243
((lp6456
g946
ag1019
ag855
atp6457
Rp6458
sVsecur
p6459
g243
((lp6460
g946
ag1019
ag855
atp6461
Rp6462
sVrity
p6463
g243
((lp6464
g1194
ag946
ag1019
ag855
atp6465
Rp6466
sVsecuri
p6467
g243
((lp6468
g946
ag1019
ag855
atp6469
Rp6470
sVsecurit
p6471
g243
((lp6472
g946
ag1019
ag855
atp6473
Rp6474
sVrms-005
p6475
g243
((lp6476
Vb2715842af9e45e996a9687a3e27a709
p6477
atp6478
Rp6479
sVms-005
p6480
g243
((lp6481
g698
atp6482
Rp6483
sVs-005
p6484
g243
((lp6485
g698
atp6486
Rp6487
sV-005
p6488
g243
((lp6489
g698
atp6490
Rp6491
sV005
p6492
g243
((lp6493
g698
atp6494
Rp6495
sV05
p6496
g243
((lp6497
g698
atp6498
Rp6499
sV5
p6500
g243
((lp6501
g698
atp6502
Rp6503
sVpersonnel
p6504
g243
((lp6505
Vea0ee14f2853485f964a51516f2fbd13
p6506
aVb2715842af9e45e996a9687a3e27a709
p6507
aVcf525f283fb0402187572f7af68c46b9
p6508
atp6509
Rp6510
sVersonnel
p6511
g243
((lp6512
g1267
ag698
ag844
atp6513
Rp6514
sVrsonnel
p6515
g243
((lp6516
g1267
ag698
ag844
atp6517
Rp6518
sVpers
p6519
g243
((lp6520
g1267
ag698
ag844
atp6521
Rp6522
sVsonnel
p6523
g243
((lp6524
g1267
ag698
ag844
atp6525
Rp6526
sVperso
p6527
g243
((lp6528
g1267
ag698
ag844
atp6529
Rp6530
sVonnel
p6531
g243
((lp6532
g1267
ag698
ag844
atp6533
Rp6534
sVperson
p6535
g243
((lp6536
g1267
ag698
ag844
atp6537
Rp6538
sVnnel
p6539
g243
((lp6540
g1267
ag698
ag844
atp6541
Rp6542
sVpersonn
p6543
g243
((lp6544
g1267
ag698
ag844
atp6545
Rp6546
sVnel
p6547
g243
((lp6548
g1267
ag698
ag844
atp6549
Rp6550
sVpersonne
p6551
g243
((lp6552
g1267
ag698
ag844
atp6553
Rp6554
sVauthorized
p6555
g243
((lp6556
Vb2715842af9e45e996a9687a3e27a709
p6557
atp6558
Rp6559
sVuthorized
p6560
g243
((lp6561
g698
atp6562
Rp6563
sVaut
p6564
g243
((lp6565
g1267
ag1194
ag698
ag1092
atp6566
Rp6567
sVthorized
p6568
g243
((lp6569
g698
atp6570
Rp6571
sVauth
p6572
g243
((lp6573
g1267
ag1194
ag698
atp6574
Rp6575
sVhorized
p6576
g243
((lp6577
g698
atp6578
Rp6579
sVautho
p6580
g243
((lp6581
g1267
ag1194
ag698
atp6582
Rp6583
sVorized
p6584
g243
((lp6585
g698
atp6586
Rp6587
sVauthor
p6588
g243
((lp6589
Vea0ee14f2853485f964a51516f2fbd13
p6590
ag1194
ag698
atp6591
Rp6592
sVrized
p6593
g243
((lp6594
g698
atp6595
Rp6596
sVauthori
p6597
g243
((lp6598
g1194
ag698
atp6599
Rp6600
sVized
p6601
g243
((lp6602
g698
atp6603
Rp6604
sVauthoriz
p6605
g243
((lp6606
g698
atp6607
Rp6608
sVzed
p6609
g243
((lp6610
g698
atp6611
Rp6612
sVauthorize
p6613
g243
((lp6614
g698
atp6615
Rp6616
sVtraining
p6617
g243
((lp6618
Vb2715842af9e45e996a9687a3e27a709
p6619
atp6620
Rp6621
sVraining
p6622
g243
((lp6623
g698
atp6624
Rp6625
sVtrain
p6626
g243
((lp6627
g698
atp6628
Rp6629
sVtraini
p6630
g243
((lp6631
g698
atp6632
Rp6633
sVtrainin
p6634
g243
((lp6635
g698
atp6636
Rp6637
sVspecific
p6638
g243
((lp6639
Vb2715842af9e45e996a9687a3e27a709
p6640
atp6641
Rp6642
sVsp
p6643
g243
((lp6644
g698
atp6645
Rp6646
sVpecific
p6647
g243
((lp6648
g698
atp6649
Rp6650
sVspe
p6651
g243
((lp6652
g698
atp6653
Rp6654
sVecific
p6655
g243
((lp6656
g698
atp6657
Rp6658
sVspec
p6659
g243
((lp6660
g698
atp6661
Rp6662
sVcific
p6663
g243
((lp6664
g698
atp6665
Rp6666
sVspeci
p6667
g243
((lp6668
g698
atp6669
Rp6670
sVific
p6671
g243
((lp6672
g698
atp6673
Rp6674
sVspecif
p6675
g243
((lp6676
g698
atp6677
Rp6678
sVspecifi
p6679
g243
((lp6680
g698
atp6681
Rp6682
sVwho
p6683
g243
((lp6684
Vb2715842af9e45e996a9687a3e27a709
p6685
atp6686
Rp6687
sVwh
p6688
g243
((lp6689
g698
atp6690
Rp6691
sVho
p6692
g243
((lp6693
g698
atp6694
Rp6695
sVrestricted
p6696
g243
((lp6697
Vb2715842af9e45e996a9687a3e27a709
p6698
atp6699
Rp6700
sVestricted
p6701
g243
((lp6702
g698
atp6703
Rp6704
sVstricted
p6705
g243
((lp6706
g698
atp6707
Rp6708
sVrest
p6709
g243
((lp6710
g698
atp6711
Rp6712
sVtricted
p6713
g243
((lp6714
g698
atp6715
Rp6716
sVrestr
p6717
g243
((lp6718
g698
atp6719
Rp6720
sVricted
p6721
g243
((lp6722
g698
atp6723
Rp6724
sVrestri
p6725
g243
((lp6726
g698
atp6727
Rp6728
sVicted
p6729
g243
((lp6730
g698
atp6731
Rp6732
sVrestric
p6733
g243
((lp6734
g698
atp6735
Rp6736
sVcted
p6737
g243
((lp6738
g698
atp6739
Rp6740
sVrestrict
p6741
g243
((lp6742
g698
atp6743
Rp6744
sVrestricte
p6745
g243
((lp6746
g698
atp6747
Rp6748
sVcompleted
p6749
g243
((lp6750
Vb2715842af9e45e996a9687a3e27a709
p6751
atp6752
Rp6753
sVompleted
p6754
g243
((lp6755
g698
atp6756
Rp6757
sVmpleted
p6758
g243
((lp6759
g698
atp6760
Rp6761
sVpleted
p6762
g243
((lp6763
g698
atp6764
Rp6765
sVleted
p6766
g243
((lp6767
g698
atp6768
Rp6769
sVeted
p6770
g243
((lp6771
g698
atp6772
Rp6773
sVvalid
p6774
g243
((lp6775
Vb2715842af9e45e996a9687a3e27a709
p6776
atp6777
Rp6778
sVva
p6779
g243
((lp6780
g698
atp6781
Rp6782
sValid
p6783
g243
((lp6784
g698
atp6785
Rp6786
sVval
p6787
g243
((lp6788
g946
ag698
ag1019
atp6789
Rp6790
sVlid
p6791
g243
((lp6792
g698
atp6793
Rp6794
sVvali
p6795
g243
((lp6796
g698
atp6797
Rp6798
sVid
p6799
g243
((lp6800
g1194
ag698
ag771
atp6801
Rp6802
sVhave
p6803
g243
((lp6804
Vb2715842af9e45e996a9687a3e27a709
p6805
atp6806
Rp6807
sVha
p6808
g243
((lp6809
g698
ag844
atp6810
Rp6811
sVave
p6812
g243
((lp6813
g698
atp6814
Rp6815
sVhav
p6816
g243
((lp6817
g698
atp6818
Rp6819
sVneed-to-know
p6820
g243
((lp6821
Vb2715842af9e45e996a9687a3e27a709
p6822
atp6823
Rp6824
sVne
p6825
g243
((lp6826
g1267
ag698
atp6827
Rp6828
sVeed-to-know
p6829
g243
((lp6830
g698
atp6831
Rp6832
sVnee
p6833
g243
((lp6834
g698
atp6835
Rp6836
sVed-to-know
p6837
g243
((lp6838
g698
atp6839
Rp6840
sVneed
p6841
g243
((lp6842
g698
atp6843
Rp6844
sVd-to-know
p6845
g243
((lp6846
g698
atp6847
Rp6848
sVneed-
p6849
g243
((lp6850
g698
atp6851
Rp6852
sV-to-know
p6853
g243
((lp6854
g698
atp6855
Rp6856
sVneed-t
p6857
g243
((lp6858
g698
atp6859
Rp6860
sVto-know
p6861
g243
((lp6862
g698
atp6863
Rp6864
sVneed-to
p6865
g243
((lp6866
g698
atp6867
Rp6868
sVo-know
p6869
g243
((lp6870
g698
atp6871
Rp6872
sVneed-to-
p6873
g243
((lp6874
g698
atp6875
Rp6876
sV-know
p6877
g243
((lp6878
g698
atp6879
Rp6880
sVneed-to-k
p6881
g243
((lp6882
g698
atp6883
Rp6884
sVknow
p6885
g243
((lp6886
g698
atp6887
Rp6888
sVneed-to-kn
p6889
g243
((lp6890
g698
atp6891
Rp6892
sVnow
p6893
g243
((lp6894
g698
atp6895
Rp6896
sVneed-to-kno
p6897
g243
((lp6898
g698
atp6899
Rp6900
sVow
p6901
g243
((lp6902
g698
atp6903
Rp6904
sVdisclosure
p6905
g243
((lp6906
Vb2715842af9e45e996a9687a3e27a709
p6907
atp6908
Rp6909
sVdi
p6910
g243
((lp6911
g698
atp6912
Rp6913
sVisclosure
p6914
g243
((lp6915
g698
atp6916
Rp6917
sVdis
p6918
g243
((lp6919
g698
atp6920
Rp6921
sVsclosure
p6922
g243
((lp6923
g698
atp6924
Rp6925
sVdisc
p6926
g243
((lp6927
g698
atp6928
Rp6929
sVclosure
p6930
g243
((lp6931
g698
atp6932
Rp6933
sVdiscl
p6934
g243
((lp6935
g698
atp6936
Rp6937
sVlosure
p6938
g243
((lp6939
g698
atp6940
Rp6941
sVdisclo
p6942
g243
((lp6943
g698
atp6944
Rp6945
sVosure
p6946
g243
((lp6947
g698
atp6948
Rp6949
sVdisclos
p6950
g243
((lp6951
g698
atp6952
Rp6953
sVsure
p6954
g243
((lp6955
g946
ag698
ag1019
ag844
atp6956
Rp6957
sVdisclosu
p6958
g243
((lp6959
g698
atp6960
Rp6961
sVdisclosur
p6962
g243
((lp6963
g698
atp6964
Rp6965
sVinformation
p6966
g243
((lp6967
Vb2715842af9e45e996a9687a3e27a709
p6968
aVcf525f283fb0402187572f7af68c46b9
p6969
atp6970
Rp6971
sVnformation
p6972
g243
((lp6973
g698
ag844
atp6974
Rp6975
sVinf
p6976
g243
((lp6977
g698
ag844
atp6978
Rp6979
sVformation
p6980
g243
((lp6981
g698
ag844
atp6982
Rp6983
sVinfo
p6984
g243
((lp6985
g698
ag844
atp6986
Rp6987
sVormation
p6988
g243
((lp6989
g698
ag844
atp6990
Rp6991
sVinfor
p6992
g243
((lp6993
g698
ag844
atp6994
Rp6995
sVrmation
p6996
g243
((lp6997
g698
ag844
atp6998
Rp6999
sVinform
p7000
g243
((lp7001
g698
ag844
atp7002
Rp7003
sVmation
p7004
g243
((lp7005
g698
ag844
atp7006
Rp7007
sVinforma
p7008
g243
((lp7009
g698
ag844
atp7010
Rp7011
sVinformat
p7012
g243
((lp7013
g698
ag844
atp7014
Rp7015
sVinformati
p7016
g243
((lp7017
g698
ag844
atp7018
Rp7019
sVinformatio
p7020
g243
((lp7021
g698
ag844
atp7022
Rp7023
sVprevent
p7024
g243
((lp7025
Vb2715842af9e45e996a9687a3e27a709
p7026
atp7027
Rp7028
sVrevent
p7029
g243
((lp7030
g698
atp7031
Rp7032
sVpre
p7033
g243
((lp7034
g698
ag844
atp7035
Rp7036
sVevent
p7037
g243
((lp7038
g698
atp7039
Rp7040
sVprev
p7041
g243
((lp7042
g698
atp7043
Rp7044
sVvent
p7045
g243
((lp7046
g698
atp7047
Rp7048
sVpreve
p7049
g243
((lp7050
g698
atp7051
Rp7052
sVpreven
p7053
g243
((lp7054
g698
atp7055
Rp7056
sVonly
p7057
g243
((lp7058
Vb2715842af9e45e996a9687a3e27a709
p7059
atp7060
Rp7061
sVnly
p7062
g243
((lp7063
g698
atp7064
Rp7065
sVonl
p7066
g243
((lp7067
g698
atp7068
Rp7069
sVunauthorized
p7070
g243
((lp7071
Vb2715842af9e45e996a9687a3e27a709
p7072
atp7073
Rp7074
sVun
p7075
g243
((lp7076
g946
ag698
ag844
atp7077
Rp7078
sVnauthorized
p7079
g243
((lp7080
g698
atp7081
Rp7082
sVuna
p7083
g243
((lp7084
g698
atp7085
Rp7086
sVunau
p7087
g243
((lp7088
g698
atp7089
Rp7090
sVunaut
p7091
g243
((lp7092
g698
atp7093
Rp7094
sVunauth
p7095
g243
((lp7096
g698
atp7097
Rp7098
sVunautho
p7099
g243
((lp7100
g698
atp7101
Rp7102
sVunauthor
p7103
g243
((lp7104
g698
atp7105
Rp7106
sVunauthori
p7107
g243
((lp7108
g698
atp7109
Rp7110
sVunauthoriz
p7111
g243
((lp7112
g698
atp7113
Rp7114
sVunauthorize
p7115
g243
((lp7116
g698
atp7117
Rp7118
sVauthorization
p7119
g243
((lp7120
Vb2715842af9e45e996a9687a3e27a709
p7121
atp7122
Rp7123
sVuthorization
p7124
g243
((lp7125
g698
atp7126
Rp7127
sVthorization
p7128
g243
((lp7129
g698
atp7130
Rp7131
sVhorization
p7132
g243
((lp7133
g698
atp7134
Rp7135
sVorization
p7136
g243
((lp7137
g698
atp7138
Rp7139
sVrization
p7140
g243
((lp7141
g698
atp7142
Rp7143
sVization
p7144
g243
((lp7145
g698
atp7146
Rp7147
sVzation
p7148
g243
((lp7149
g698
atp7150
Rp7151
sVauthoriza
p7152
g243
((lp7153
g698
atp7154
Rp7155
sVauthorizat
p7156
g243
((lp7157
g698
atp7158
Rp7159
sVauthorizati
p7160
g243
((lp7161
g698
atp7162
Rp7163
sVauthorizatio
p7164
g243
((lp7165
g698
atp7166
Rp7167
sVrecords
p7168
g243
((lp7169
Va15af5d0a4d049c594d61f2469a7dcbc
p7170
aVb2715842af9e45e996a9687a3e27a709
p7171
aV082cd50632274eb0b40fcc15d3339f88
p7172
atp7173
Rp7174
sVecords
p7175
g243
((lp7176
g946
ag698
ag1019
atp7177
Rp7178
sVrec
p7179
g243
((lp7180
g946
ag698
ag1019
atp7181
Rp7182
sVcords
p7183
g243
((lp7184
g946
ag698
ag1019
atp7185
Rp7186
sVreco
p7187
g243
((lp7188
g946
ag698
ag1019
atp7189
Rp7190
sVords
p7191
g243
((lp7192
g946
ag698
ag1019
atp7193
Rp7194
sVrecor
p7195
g243
((lp7196
g946
ag698
ag1019
atp7197
Rp7198
sVrds
p7199
g243
((lp7200
g946
ag698
ag1019
atp7201
Rp7202
sVrecord
p7203
g243
((lp7204
g946
ag698
ag1019
atp7205
Rp7206
sVds
p7207
g243
((lp7208
g946
ag698
ag1019
atp7209
Rp7210
sVlogs
p7211
g243
((lp7212
Vb2715842af9e45e996a9687a3e27a709
p7213
aVc7ca7f3f64034ca9983bd6484fe655c2
p7214
atp7215
Rp7216
sVlo
p7217
g243
((lp7218
g698
ag771
atp7219
Rp7220
sVogs
p7221
g243
((lp7222
g698
ag771
atp7223
Rp7224
sVlog
p7225
g243
((lp7226
g698
ag771
atp7227
Rp7228
sVindividuals
p7229
g243
((lp7230
Vb2715842af9e45e996a9687a3e27a709
p7231
atp7232
Rp7233
sVndividuals
p7234
g243
((lp7235
g698
atp7236
Rp7237
sVind
p7238
g243
((lp7239
g698
atp7240
Rp7241
sVdividuals
p7242
g243
((lp7243
g698
atp7244
Rp7245
sVindi
p7246
g243
((lp7247
g698
atp7248
Rp7249
sVividuals
p7250
g243
((lp7251
g698
atp7252
Rp7253
sVindiv
p7254
g243
((lp7255
g698
atp7256
Rp7257
sVviduals
p7258
g243
((lp7259
g698
atp7260
Rp7261
sVindivi
p7262
g243
((lp7263
g698
atp7264
Rp7265
sViduals
p7266
g243
((lp7267
g698
atp7268
Rp7269
sVindivid
p7270
g243
((lp7271
g698
atp7272
Rp7273
sVduals
p7274
g243
((lp7275
g698
atp7276
Rp7277
sVindividu
p7278
g243
((lp7279
g698
atp7280
Rp7281
sVuals
p7282
g243
((lp7283
g698
atp7284
Rp7285
sVindividua
p7286
g243
((lp7287
g698
atp7288
Rp7289
sVals
p7290
g243
((lp7291
g698
atp7292
Rp7293
sVindividual
p7294
g243
((lp7295
g698
atp7296
Rp7297
sVrms-006
p7298
g243
((lp7299
Vc7ca7f3f64034ca9983bd6484fe655c2
p7300
atp7301
Rp7302
sVms-006
p7303
g243
((lp7304
g771
atp7305
Rp7306
sVs-006
p7307
g243
((lp7308
g771
atp7309
Rp7310
sV-006
p7311
g243
((lp7312
g771
atp7313
Rp7314
sV006
p7315
g243
((lp7316
g771
atp7317
Rp7318
sV06
p7319
g243
((lp7320
g771
atp7321
Rp7322
sV6
p7323
g243
((lp7324
g771
atp7325
Rp7326
sVchanges
p7327
g243
((lp7328
V082cd50632274eb0b40fcc15d3339f88
p7329
aVc7ca7f3f64034ca9983bd6484fe655c2
p7330
atp7331
Rp7332
sVch
p7333
g243
((lp7334
g1194
ag1019
ag771
atp7335
Rp7336
sVhanges
p7337
g243
((lp7338
g1019
ag771
atp7339
Rp7340
sVcha
p7341
g243
((lp7342
g1194
ag1019
ag771
atp7343
Rp7344
sVanges
p7345
g243
((lp7346
g1019
ag771
atp7347
Rp7348
sVchan
p7349
g243
((lp7350
g1019
ag771
atp7351
Rp7352
sVnges
p7353
g243
((lp7354
g1019
ag771
atp7355
Rp7356
sVchang
p7357
g243
((lp7358
g1019
ag771
atp7359
Rp7360
sVges
p7361
g243
((lp7362
g1019
ag771
atp7363
Rp7364
sVchange
p7365
g243
((lp7366
V082cd50632274eb0b40fcc15d3339f88
p7367
ag771
atp7368
Rp7369
sVhange
p7370
g243
((lp7371
g1019
ag771
atp7372
Rp7373
sVange
p7374
g243
((lp7375
g1019
ag771
atp7376
Rp7377
sVnge
p7378
g243
((lp7379
g1019
ag771
atp7380
Rp7381
sVidentification
p7382
g243
((lp7383
Vc7ca7f3f64034ca9983bd6484fe655c2
p7384
atp7385
Rp7386
sVdentification
p7387
g243
((lp7388
g771
atp7389
Rp7390
sVide
p7391
g243
((lp7392
g1194
ag771
atp7393
Rp7394
sVentification
p7395
g243
((lp7396
g771
atp7397
Rp7398
sViden
p7399
g243
((lp7400
g1194
ag771
atp7401
Rp7402
sVntification
p7403
g243
((lp7404
g771
atp7405
Rp7406
sVident
p7407
g243
((lp7408
g1194
ag771
atp7409
Rp7410
sVtification
p7411
g243
((lp7412
g771
atp7413
Rp7414
sVidenti
p7415
g243
((lp7416
g1194
ag771
atp7417
Rp7418
sVidentif
p7419
g243
((lp7420
g1194
ag771
atp7421
Rp7422
sVidentifi
p7423
g243
((lp7424
g771
atp7425
Rp7426
sVidentific
p7427
g243
((lp7428
g771
atp7429
Rp7430
sVidentifica
p7431
g243
((lp7432
g771
atp7433
Rp7434
sVidentificat
p7435
g243
((lp7436
g771
atp7437
Rp7438
sVidentificati
p7439
g243
((lp7440
g771
atp7441
Rp7442
sVidentificatio
p7443
g243
((lp7444
g771
atp7445
Rp7446
sVdescription
p7447
g243
((lp7448
g1194
aVc7ca7f3f64034ca9983bd6484fe655c2
p7449
atp7450
Rp7451
sVescription
p7452
g243
((lp7453
g771
atp7454
Rp7455
sVscription
p7456
g243
((lp7457
g771
atp7458
Rp7459
sVdesc
p7460
g243
((lp7461
g1194
ag771
atp7462
Rp7463
sVcription
p7464
g243
((lp7465
g771
atp7466
Rp7467
sVdescr
p7468
g243
((lp7469
g1194
ag771
atp7470
Rp7471
sVription
p7472
g243
((lp7473
g771
atp7474
Rp7475
sVdescri
p7476
g243
((lp7477
g1194
ag771
atp7478
Rp7479
sViption
p7480
g243
((lp7481
g771
atp7482
Rp7483
sVdescrip
p7484
g243
((lp7485
g1194
ag771
atp7486
Rp7487
sVption
p7488
g243
((lp7489
g771
atp7490
Rp7491
sVdescript
p7492
g243
((lp7493
g1194
ag771
atp7494
Rp7495
sVdescripti
p7496
g243
((lp7497
g1194
ag771
atp7498
Rp7499
sVdescriptio
p7500
g243
((lp7501
g1194
ag771
atp7502
Rp7503
sVtimestamp
p7504
g243
((lp7505
Vc7ca7f3f64034ca9983bd6484fe655c2
p7506
atp7507
Rp7508
sVti
p7509
g243
((lp7510
g771
atp7511
Rp7512
sVimestamp
p7513
g243
((lp7514
g771
atp7515
Rp7516
sVtim
p7517
g243
((lp7518
g771
atp7519
Rp7520
sVmestamp
p7521
g243
((lp7522
g771
atp7523
Rp7524
sVtime
p7525
g243
((lp7526
g771
atp7527
Rp7528
sVestamp
p7529
g243
((lp7530
g771
atp7531
Rp7532
sVtimes
p7533
g243
((lp7534
g771
atp7535
Rp7536
sVstamp
p7537
g243
((lp7538
g771
atp7539
Rp7540
sVtimest
p7541
g243
((lp7542
g771
atp7543
Rp7544
sVtamp
p7545
g243
((lp7546
g771
atp7547
Rp7548
sVtimesta
p7549
g243
((lp7550
g771
atp7551
Rp7552
sVamp
p7553
g243
((lp7554
g771
atp7555
Rp7556
sVtimestam
p7557
g243
((lp7558
g771
atp7559
Rp7560
sVmp
p7561
g243
((lp7562
g771
atp7563
Rp7564
sVuser
p7565
g243
((lp7566
Vc7ca7f3f64034ca9983bd6484fe655c2
p7567
atp7568
Rp7569
sVus
p7570
g243
((lp7571
g1194
ag771
atp7572
Rp7573
sVser
p7574
g243
((lp7575
g771
atp7576
Rp7577
sVuse
p7578
g243
((lp7579
g771
atp7580
Rp7581
sVlogged
p7582
g243
((lp7583
Vc7ca7f3f64034ca9983bd6484fe655c2
p7584
atp7585
Rp7586
sVogged
p7587
g243
((lp7588
g771
atp7589
Rp7590
sVgged
p7591
g243
((lp7592
g771
atp7593
Rp7594
sVlogg
p7595
g243
((lp7596
g771
atp7597
Rp7598
sVged
p7599
g243
((lp7600
g771
atp7601
Rp7602
sVlogge
p7603
g243
((lp7604
g771
atp7605
Rp7606
sVtrack
p7607
g243
((lp7608
Vc7ca7f3f64034ca9983bd6484fe655c2
p7609
atp7610
Rp7611
sVrack
p7612
g243
((lp7613
g771
atp7614
Rp7615
sVack
p7616
g243
((lp7617
g771
atp7618
Rp7619
sVck
p7620
g243
((lp7621
g771
atp7622
Rp7623
sVmodifications
p7624
g243
((lp7625
V082cd50632274eb0b40fcc15d3339f88
p7626
aVc7ca7f3f64034ca9983bd6484fe655c2
p7627
atp7628
Rp7629
sVmo
p7630
g243
((lp7631
g1019
ag771
atp7632
Rp7633
sVodifications
p7634
g243
((lp7635
g1019
ag771
atp7636
Rp7637
sVmod
p7638
g243
((lp7639
g1019
ag771
atp7640
Rp7641
sVdifications
p7642
g243
((lp7643
g1019
ag771
atp7644
Rp7645
sVmodi
p7646
g243
((lp7647
g1019
ag771
atp7648
Rp7649
sVifications
p7650
g243
((lp7651
g1019
ag771
atp7652
Rp7653
sVmodif
p7654
g243
((lp7655
g1019
ag771
atp7656
Rp7657
sVfications
p7658
g243
((lp7659
g1019
ag771
atp7660
Rp7661
sVmodifi
p7662
g243
((lp7663
g1019
ag771
atp7664
Rp7665
sVications
p7666
g243
((lp7667
g1019
ag771
atp7668
Rp7669
sVmodific
p7670
g243
((lp7671
g1019
ag771
atp7672
Rp7673
sVcations
p7674
g243
((lp7675
g1019
ag771
atp7676
Rp7677
sVmodifica
p7678
g243
((lp7679
g1019
ag771
atp7680
Rp7681
sVmodificat
p7682
g243
((lp7683
g1019
ag771
atp7684
Rp7685
sVmodificati
p7686
g243
((lp7687
g1019
ag771
atp7688
Rp7689
sVmodificatio
p7690
g243
((lp7691
g1019
ag771
atp7692
Rp7693
sVmodification
p7694
g243
((lp7695
g1019
ag771
atp7696
Rp7697
sVdemonstrate
p7698
g243
((lp7699
Vc7ca7f3f64034ca9983bd6484fe655c2
p7700
atp7701
Rp7702
sVemonstrate
p7703
g243
((lp7704
g771
atp7705
Rp7706
sVdem
p7707
g243
((lp7708
g1267
ag771
ag1092
atp7709
Rp7710
sVmonstrate
p7711
g243
((lp7712
g771
atp7713
Rp7714
sVdemo
p7715
g243
((lp7716
g1267
ag771
ag1092
atp7717
Rp7718
sVonstrate
p7719
g243
((lp7720
g771
atp7721
Rp7722
sVdemon
p7723
g243
((lp7724
g1267
ag771
ag1092
atp7725
Rp7726
sVnstrate
p7727
g243
((lp7728
g771
atp7729
Rp7730
sVdemons
p7731
g243
((lp7732
g1267
ag771
ag1092
atp7733
Rp7734
sVstrate
p7735
g243
((lp7736
g771
atp7737
Rp7738
sVdemonst
p7739
g243
((lp7740
g1267
ag771
ag1092
atp7741
Rp7742
sVtrate
p7743
g243
((lp7744
g771
atp7745
Rp7746
sVdemonstr
p7747
g243
((lp7748
g1267
ag771
ag1092
atp7749
Rp7750
sVrate
p7751
g243
((lp7752
g771
atp7753
Rp7754
sVdemonstra
p7755
g243
((lp7756
g1267
ag771
ag1092
atp7757
Rp7758
sVdemonstrat
p7759
g243
((lp7760
g1267
ag771
ag1092
atp7761
Rp7762
sVreports
p7763
g243
((lp7764
Vc7ca7f3f64034ca9983bd6484fe655c2
p7765
aV4b2c183b69974fa3b1c1af98020bf156
p7766
atp7767
Rp7768
sVeports
p7769
g243
((lp7770
g771
ag1092
atp7771
Rp7772
sVports
p7773
g243
((lp7774
g771
ag1092
atp7775
Rp7776
sVorts
p7777
g243
((lp7778
g771
ag1092
atp7779
Rp7780
sVrts
p7781
g243
((lp7782
g771
ag1092
atp7783
Rp7784
sVtracking
p7785
g243
((lp7786
Vc7ca7f3f64034ca9983bd6484fe655c2
p7787
atp7788
Rp7789
sVracking
p7790
g243
((lp7791
g771
atp7792
Rp7793
sVacking
p7794
g243
((lp7795
g771
atp7796
Rp7797
sVcking
p7798
g243
((lp7799
g771
atp7800
Rp7801
sVtracki
p7802
g243
((lp7803
g771
atp7804
Rp7805
sVtrackin
p7806
g243
((lp7807
g771
atp7808
Rp7809
sVdemonstrating
p7810
g243
((lp7811
Vea0ee14f2853485f964a51516f2fbd13
p7812
aVc7ca7f3f64034ca9983bd6484fe655c2
p7813
aV4b2c183b69974fa3b1c1af98020bf156
p7814
atp7815
Rp7816
sVemonstrating
p7817
g243
((lp7818
g1267
ag771
ag1092
atp7819
Rp7820
sVmonstrating
p7821
g243
((lp7822
g1267
ag771
ag1092
atp7823
Rp7824
sVonstrating
p7825
g243
((lp7826
g1267
ag771
ag1092
atp7827
Rp7828
sVnstrating
p7829
g243
((lp7830
g1267
ag771
ag1092
atp7831
Rp7832
sVstrating
p7833
g243
((lp7834
g1267
ag771
ag1092
atp7835
Rp7836
sVtrating
p7837
g243
((lp7838
g1267
ag771
ag1092
atp7839
Rp7840
sVrating
p7841
g243
((lp7842
g1267
ag771
ag1092
atp7843
Rp7844
sVating
p7845
g243
((lp7846
g1267
ag771
ag1092
atp7847
Rp7848
sVdemonstrati
p7849
g243
((lp7850
g1267
ag771
ag1092
atp7851
Rp7852
sVdemonstratin
p7853
g243
((lp7854
g1267
ag771
ag1092
atp7855
Rp7856
sVrms-007
p7857
g243
((lp7858
Vcf525f283fb0402187572f7af68c46b9
p7859
atp7860
Rp7861
sVms-007
p7862
g243
((lp7863
g844
atp7864
Rp7865
sVs-007
p7866
g243
((lp7867
g844
atp7868
Rp7869
sV-007
p7870
g243
((lp7871
g844
atp7872
Rp7873
sV007
p7874
g243
((lp7875
g844
atp7876
Rp7877
sV07
p7878
g243
((lp7879
g844
atp7880
Rp7881
sV7
p7882
g243
((lp7883
g844
atp7884
Rp7885
sVstate
p7886
g243
((lp7887
Vcf525f283fb0402187572f7af68c46b9
p7888
atp7889
Rp7890
sVtate
p7891
g243
((lp7892
g844
atp7893
Rp7894
sVsta
p7895
g243
((lp7896
g844
atp7897
Rp7898
sVstat
p7899
g243
((lp7900
g844
atp7901
Rp7902
sVappropriate
p7903
g243
((lp7904
Vcf525f283fb0402187572f7af68c46b9
p7905
atp7906
Rp7907
sVap
p7908
g243
((lp7909
g1194
ag946
ag1019
ag844
atp7910
Rp7911
sVppropriate
p7912
g243
((lp7913
g844
atp7914
Rp7915
sVapp
p7916
g243
((lp7917
g1194
ag946
ag1019
ag844
atp7918
Rp7919
sVpropriate
p7920
g243
((lp7921
g844
atp7922
Rp7923
sVappr
p7924
g243
((lp7925
g946
ag1019
ag844
atp7926
Rp7927
sVropriate
p7928
g243
((lp7929
g844
atp7930
Rp7931
sVappro
p7932
g243
((lp7933
g946
ag1019
ag844
atp7934
Rp7935
sVopriate
p7936
g243
((lp7937
g844
atp7938
Rp7939
sVapprop
p7940
g243
((lp7941
g844
atp7942
Rp7943
sVpriate
p7944
g243
((lp7945
g844
atp7946
Rp7947
sVappropr
p7948
g243
((lp7949
g844
atp7950
Rp7951
sVriate
p7952
g243
((lp7953
g844
atp7954
Rp7955
sVappropri
p7956
g243
((lp7957
g844
atp7958
Rp7959
sViate
p7960
g243
((lp7961
g844
atp7962
Rp7963
sVappropria
p7964
g243
((lp7965
g844
atp7966
Rp7967
sVappropriat
p7968
g243
((lp7969
g844
atp7970
Rp7971
sVinstructions
p7972
g243
((lp7973
Vcf525f283fb0402187572f7af68c46b9
p7974
atp7975
Rp7976
sVnstructions
p7977
g243
((lp7978
g844
atp7979
Rp7980
sVins
p7981
g243
((lp7982
g844
atp7983
Rp7984
sVstructions
p7985
g243
((lp7986
g844
atp7987
Rp7988
sVinst
p7989
g243
((lp7990
g844
atp7991
Rp7992
sVtructions
p7993
g243
((lp7994
g844
atp7995
Rp7996
sVinstr
p7997
g243
((lp7998
g844
atp7999
Rp8000
sVructions
p8001
g243
((lp8002
g844
atp8003
Rp8004
sVinstru
p8005
g243
((lp8006
g844
atp8007
Rp8008
sVuctions
p8009
g243
((lp8010
g844
atp8011
Rp8012
sVinstruc
p8013
g243
((lp8014
g844
atp8015
Rp8016
sVctions
p8017
g243
((lp8018
g844
atp8019
Rp8020
sVinstruct
p8021
g243
((lp8022
g844
atp8023
Rp8024
sVinstructi
p8025
g243
((lp8026
g844
atp8027
Rp8028
sVinstructio
p8029
g243
((lp8030
g844
atp8031
Rp8032
sVinstruction
p8033
g243
((lp8034
g844
atp8035
Rp8036
sVaccordance
p8037
g243
((lp8038
Vcf525f283fb0402187572f7af68c46b9
p8039
atp8040
Rp8041
sVccordance
p8042
g243
((lp8043
g844
atp8044
Rp8045
sVcordance
p8046
g243
((lp8047
g844
atp8048
Rp8049
sVacco
p8050
g243
((lp8051
g844
atp8052
Rp8053
sVordance
p8054
g243
((lp8055
g844
atp8056
Rp8057
sVaccor
p8058
g243
((lp8059
g844
atp8060
Rp8061
sVrdance
p8062
g243
((lp8063
g844
atp8064
Rp8065
sVaccord
p8066
g243
((lp8067
g844
atp8068
Rp8069
sVdance
p8070
g243
((lp8071
g844
atp8072
Rp8073
sVaccorda
p8074
g243
((lp8075
g844
atp8076
Rp8077
sVaccordan
p8078
g243
((lp8079
g844
atp8080
Rp8081
sVaccordanc
p8082
g243
((lp8083
g844
atp8084
Rp8085
sVdepartment
p8086
g243
((lp8087
Vcf525f283fb0402187572f7af68c46b9
p8088
atp8089
Rp8090
sVepartment
p8091
g243
((lp8092
g844
atp8093
Rp8094
sVdep
p8095
g243
((lp8096
g844
atp8097
Rp8098
sVpartment
p8099
g243
((lp8100
g844
atp8101
Rp8102
sVdepa
p8103
g243
((lp8104
g844
atp8105
Rp8106
sVartment
p8107
g243
((lp8108
g844
atp8109
Rp8110
sVdepar
p8111
g243
((lp8112
g844
atp8113
Rp8114
sVrtment
p8115
g243
((lp8116
g844
atp8117
Rp8118
sVdepart
p8119
g243
((lp8120
g844
atp8121
Rp8122
sVtment
p8123
g243
((lp8124
g844
atp8125
Rp8126
sVdepartm
p8127
g243
((lp8128
g844
atp8129
Rp8130
sVdepartme
p8131
g243
((lp8132
g844
atp8133
Rp8134
sVdepartmen
p8135
g243
((lp8136
g844
atp8137
Rp8138
sVhandling
p8139
g243
((lp8140
Vcf525f283fb0402187572f7af68c46b9
p8141
atp8142
Rp8143
sVandling
p8144
g243
((lp8145
g844
atp8146
Rp8147
sVhan
p8148
g243
((lp8149
g844
atp8150
Rp8151
sVndling
p8152
g243
((lp8153
g844
atp8154
Rp8155
sVhand
p8156
g243
((lp8157
g844
atp8158
Rp8159
sVdling
p8160
g243
((lp8161
g844
atp8162
Rp8163
sVhandl
p8164
g243
((lp8165
g844
atp8166
Rp8167
sVling
p8168
g243
((lp8169
g844
atp8170
Rp8171
sVhandli
p8172
g243
((lp8173
g844
atp8174
Rp8175
sVhandlin
p8176
g243
((lp8177
g844
atp8178
Rp8179
sVsensitivity
p8180
g243
((lp8181
Vcf525f283fb0402187572f7af68c46b9
p8182
atp8183
Rp8184
sVensitivity
p8185
g243
((lp8186
g844
atp8187
Rp8188
sVsen
p8189
g243
((lp8190
g844
atp8191
Rp8192
sVnsitivity
p8193
g243
((lp8194
g844
atp8195
Rp8196
sVsens
p8197
g243
((lp8198
g844
atp8199
Rp8200
sVsitivity
p8201
g243
((lp8202
g844
atp8203
Rp8204
sVsensi
p8205
g243
((lp8206
g844
atp8207
Rp8208
sVitivity
p8209
g243
((lp8210
g844
atp8211
Rp8212
sVsensit
p8213
g243
((lp8214
g844
atp8215
Rp8216
sVtivity
p8217
g243
((lp8218
g844
atp8219
Rp8220
sVsensiti
p8221
g243
((lp8222
g844
atp8223
Rp8224
sVivity
p8225
g243
((lp8226
g844
atp8227
Rp8228
sVsensitiv
p8229
g243
((lp8230
g844
atp8231
Rp8232
sVvity
p8233
g243
((lp8234
g844
atp8235
Rp8236
sVsensitivi
p8237
g243
((lp8238
g844
atp8239
Rp8240
sVsensitivit
p8241
g243
((lp8242
g844
atp8243
Rp8244
sVby
p8245
g243
((lp8246
Vea0ee14f2853485f964a51516f2fbd13
p8247
aVcf525f283fb0402187572f7af68c46b9
p8248
atp8249
Rp8250
sVrequired
p8251
g243
((lp8252
V4b2c183b69974fa3b1c1af98020bf156
p8253
aVcf525f283fb0402187572f7af68c46b9
p8254
atp8255
Rp8256
sVequired
p8257
g243
((lp8258
g1092
ag844
atp8259
Rp8260
sVquired
p8261
g243
((lp8262
g1092
ag844
atp8263
Rp8264
sVuired
p8265
g243
((lp8266
g1092
ag844
atp8267
Rp8268
sVired
p8269
g243
((lp8270
g1092
ag844
atp8271
Rp8272
sVred
p8273
g243
((lp8274
g1267
ag1092
ag844
atp8275
Rp8276
sVis
p8277
g243
((lp8278
g1019
ag1092
aVcf525f283fb0402187572f7af68c46b9
p8279
atp8280
Rp8281
sVnsure
p8282
g243
((lp8283
g946
ag1019
ag844
atp8284
Rp8285
sVunderstand
p8286
g243
((lp8287
Vcf525f283fb0402187572f7af68c46b9
p8288
atp8289
Rp8290
sVnderstand
p8291
g243
((lp8292
g844
atp8293
Rp8294
sVund
p8295
g243
((lp8296
g946
ag844
atp8297
Rp8298
sVderstand
p8299
g243
((lp8300
g844
atp8301
Rp8302
sVunde
p8303
g243
((lp8304
g946
ag844
atp8305
Rp8306
sVerstand
p8307
g243
((lp8308
g844
atp8309
Rp8310
sVunder
p8311
g243
((lp8312
g946
ag844
atp8313
Rp8314
sVrstand
p8315
g243
((lp8316
g844
atp8317
Rp8318
sVunders
p8319
g243
((lp8320
g844
atp8321
Rp8322
sVstand
p8323
g243
((lp8324
g844
atp8325
Rp8326
sVunderst
p8327
g243
((lp8328
g844
atp8329
Rp8330
sVtand
p8331
g243
((lp8332
g844
atp8333
Rp8334
sVundersta
p8335
g243
((lp8336
g844
atp8337
Rp8338
sVunderstan
p8339
g243
((lp8340
g844
atp8341
Rp8342
sVnotices
p8343
g243
((lp8344
Vcf525f283fb0402187572f7af68c46b9
p8345
atp8346
Rp8347
sVno
p8348
g243
((lp8349
g844
atp8350
Rp8351
sVotices
p8352
g243
((lp8353
g844
atp8354
Rp8355
sVnot
p8356
g243
((lp8357
g844
atp8358
Rp8359
sVtices
p8360
g243
((lp8361
g844
atp8362
Rp8363
sVnoti
p8364
g243
((lp8365
g844
atp8366
Rp8367
sVices
p8368
g243
((lp8369
g1092
ag844
atp8370
Rp8371
sVnotic
p8372
g243
((lp8373
g844
atp8374
Rp8375
sVces
p8376
g243
((lp8377
g946
ag1019
ag1092
ag844
atp8378
Rp8379
sVnotice
p8380
g243
((lp8381
g844
atp8382
Rp8383
sVpresence
p8384
g243
((lp8385
Vcf525f283fb0402187572f7af68c46b9
p8386
atp8387
Rp8388
sVresence
p8389
g243
((lp8390
g844
atp8391
Rp8392
sVesence
p8393
g243
((lp8394
g844
atp8395
Rp8396
sVpres
p8397
g243
((lp8398
g844
atp8399
Rp8400
sVsence
p8401
g243
((lp8402
g844
atp8403
Rp8404
sVprese
p8405
g243
((lp8406
g844
atp8407
Rp8408
sVence
p8409
g243
((lp8410
g844
atp8411
Rp8412
sVpresen
p8413
g243
((lp8414
g844
atp8415
Rp8416
sVpresenc
p8417
g243
((lp8418
g844
atp8419
Rp8420
sVrms-lif
p8421
g243
((lp8422
V46cb3267795248b68b272751196f2eb5
p8423
atp8424
Rp8425
sVms-lif
p8426
g243
((lp8427
g1103
atp8428
Rp8429
sVs-lif
p8430
g243
((lp8431
g1103
atp8432
Rp8433
sV-lif
p8434
g243
((lp8435
g1103
atp8436
Rp8437
sVrms-l
p8438
g243
((lp8439
g1103
atp8440
Rp8441
sVrms-li
p8442
g243
((lp8443
g1103
atp8444
Rp8445
sVif
p8446
g243
((lp8447
g1103
atp8448
Rp8449
sVrms-008
p8450
g243
((lp8451
Va15af5d0a4d049c594d61f2469a7dcbc
p8452
atp8453
Rp8454
sVms-008
p8455
g243
((lp8456
g946
atp8457
Rp8458
sVs-008
p8459
g243
((lp8460
g946
atp8461
Rp8462
sV-008
p8463
g243
((lp8464
g946
atp8465
Rp8466
sV008
p8467
g243
((lp8468
g946
atp8469
Rp8470
sV08
p8471
g243
((lp8472
g946
atp8473
Rp8474
sV8
p8475
g243
((lp8476
g946
atp8477
Rp8478
sVprocess
p8479
g243
((lp8480
g1194
aVa15af5d0a4d049c594d61f2469a7dcbc
p8481
ag1019
atp8482
Rp8483
sVrocess
p8484
g243
((lp8485
g946
ag1019
atp8486
Rp8487
sVocess
p8488
g243
((lp8489
g946
ag1019
atp8490
Rp8491
sVproces
p8492
g243
((lp8493
g1194
ag946
ag1019
atp8494
Rp8495
sVundergo
p8496
g243
((lp8497
Va15af5d0a4d049c594d61f2469a7dcbc
p8498
atp8499
Rp8500
sVndergo
p8501
g243
((lp8502
g946
atp8503
Rp8504
sVdergo
p8505
g243
((lp8506
g946
atp8507
Rp8508
sVergo
p8509
g243
((lp8510
g946
atp8511
Rp8512
sVrgo
p8513
g243
((lp8514
g946
atp8515
Rp8516
sVunderg
p8517
g243
((lp8518
g946
atp8519
Rp8520
sVgo
p8521
g243
((lp8522
g946
atp8523
Rp8524
sVapproval
p8525
g243
((lp8526
Va15af5d0a4d049c594d61f2469a7dcbc
p8527
aV082cd50632274eb0b40fcc15d3339f88
p8528
atp8529
Rp8530
sVpproval
p8531
g243
((lp8532
g946
ag1019
atp8533
Rp8534
sVproval
p8535
g243
((lp8536
g946
ag1019
atp8537
Rp8538
sVroval
p8539
g243
((lp8540
g946
ag1019
atp8541
Rp8542
sVoval
p8543
g243
((lp8544
g946
ag1019
atp8545
Rp8546
sVapprov
p8547
g243
((lp8548
g946
ag1019
atp8549
Rp8550
sVapprova
p8551
g243
((lp8552
g946
ag1019
atp8553
Rp8554
sVbefore
p8555
g243
((lp8556
Va15af5d0a4d049c594d61f2469a7dcbc
p8557
aV082cd50632274eb0b40fcc15d3339f88
p8558
atp8559
Rp8560
sVefore
p8561
g243
((lp8562
g946
ag1019
atp8563
Rp8564
sVbef
p8565
g243
((lp8566
g946
ag1019
atp8567
Rp8568
sVfore
p8569
g243
((lp8570
g946
ag1019
atp8571
Rp8572
sVbefo
p8573
g243
((lp8574
g946
ag1019
atp8575
Rp8576
sVore
p8577
g243
((lp8578
g946
ag1019
atp8579
Rp8580
sVbefor
p8581
g243
((lp8582
g946
ag1019
atp8583
Rp8584
sVbaselined
p8585
g243
((lp8586
Va15af5d0a4d049c594d61f2469a7dcbc
p8587
aV082cd50632274eb0b40fcc15d3339f88
p8588
atp8589
Rp8590
sVba
p8591
g243
((lp8592
g946
ag1019
atp8593
Rp8594
sVaselined
p8595
g243
((lp8596
g946
ag1019
atp8597
Rp8598
sVbas
p8599
g243
((lp8600
g946
ag1019
atp8601
Rp8602
sVselined
p8603
g243
((lp8604
g946
ag1019
atp8605
Rp8606
sVelined
p8607
g243
((lp8608
g946
ag1019
atp8609
Rp8610
sVbasel
p8611
g243
((lp8612
g946
ag1019
atp8613
Rp8614
sVlined
p8615
g243
((lp8616
g946
ag1019
atp8617
Rp8618
sVbaseli
p8619
g243
((lp8620
g946
ag1019
atp8621
Rp8622
sVined
p8623
g243
((lp8624
g946
ag1019
atp8625
Rp8626
sVbaselin
p8627
g243
((lp8628
g946
ag1019
atp8629
Rp8630
sVned
p8631
g243
((lp8632
g1267
ag946
ag1019
atp8633
Rp8634
sVbaseline
p8635
g243
((lp8636
g946
ag1019
atp8637
Rp8638
sVprocesses
p8639
g243
((lp8640
V9f1baf1773a84f81a64a0d9b7b22a010
p8641
aVa15af5d0a4d049c594d61f2469a7dcbc
p8642
aV082cd50632274eb0b40fcc15d3339f88
p8643
atp8644
Rp8645
sVrocesses
p8646
g243
((lp8647
g1194
ag946
ag1019
atp8648
Rp8649
sVocesses
p8650
g243
((lp8651
g1194
ag946
ag1019
atp8652
Rp8653
sVcesses
p8654
g243
((lp8655
g1194
ag946
ag1019
atp8656
Rp8657
sVesses
p8658
g243
((lp8659
g1194
ag946
ag1019
atp8660
Rp8661
sVsses
p8662
g243
((lp8663
g1194
ag946
ag1019
atp8664
Rp8665
sVses
p8666
g243
((lp8667
g1194
ag946
ag1019
atp8668
Rp8669
sVprocesse
p8670
g243
((lp8671
g1194
ag946
ag1019
atp8672
Rp8673
sVprogram
p8674
g243
((lp8675
Va15af5d0a4d049c594d61f2469a7dcbc
p8676
ag1019
atp8677
Rp8678
sVrogram
p8679
g243
((lp8680
g946
atp8681
Rp8682
sVogram
p8683
g243
((lp8684
g946
atp8685
Rp8686
sVprog
p8687
g243
((lp8688
g946
ag1019
atp8689
Rp8690
sVgram
p8691
g243
((lp8692
g946
atp8693
Rp8694
sVprogr
p8695
g243
((lp8696
g946
ag1019
atp8697
Rp8698
sVram
p8699
g243
((lp8700
g946
atp8701
Rp8702
sVprogra
p8703
g243
((lp8704
g946
ag1019
atp8705
Rp8706
sVam
p8707
g243
((lp8708
g946
atp8709
Rp8710
sVbeing
p8711
g243
((lp8712
Va15af5d0a4d049c594d61f2469a7dcbc
p8713
atp8714
Rp8715
sVeing
p8716
g243
((lp8717
g1194
ag946
atp8718
Rp8719
sVbei
p8720
g243
((lp8721
g946
atp8722
Rp8723
sVbein
p8724
g243
((lp8725
g946
atp8726
Rp8727
sVsound
p8728
g243
((lp8729
Va15af5d0a4d049c594d61f2469a7dcbc
p8730
atp8731
Rp8732
sVound
p8733
g243
((lp8734
g946
atp8735
Rp8736
sVsou
p8737
g243
((lp8738
g946
atp8739
Rp8740
sVsoun
p8741
g243
((lp8742
g946
atp8743
Rp8744
sVcommitting
p8745
g243
((lp8746
Va15af5d0a4d049c594d61f2469a7dcbc
p8747
atp8748
Rp8749
sVommitting
p8750
g243
((lp8751
g946
atp8752
Rp8753
sVmmitting
p8754
g243
((lp8755
g946
atp8756
Rp8757
sVcomm
p8758
g243
((lp8759
g946
atp8760
Rp8761
sVmitting
p8762
g243
((lp8763
g946
atp8764
Rp8765
sVcommi
p8766
g243
((lp8767
g946
atp8768
Rp8769
sVitting
p8770
g243
((lp8771
g946
atp8772
Rp8773
sVcommit
p8774
g243
((lp8775
g946
atp8776
Rp8777
sVtting
p8778
g243
((lp8779
g1267
ag946
atp8780
Rp8781
sVcommitt
p8782
g243
((lp8783
g946
atp8784
Rp8785
sVcommitti
p8786
g243
((lp8787
g946
atp8788
Rp8789
sVcommittin
p8790
g243
((lp8791
g946
atp8792
Rp8793
sVtechnically
p8794
g243
((lp8795
Va15af5d0a4d049c594d61f2469a7dcbc
p8796
atp8797
Rp8798
sVechnically
p8799
g243
((lp8800
g946
atp8801
Rp8802
sVchnically
p8803
g243
((lp8804
g946
atp8805
Rp8806
sVhnically
p8807
g243
((lp8808
g946
atp8809
Rp8810
sVnically
p8811
g243
((lp8812
g946
atp8813
Rp8814
sVically
p8815
g243
((lp8816
g946
atp8817
Rp8818
sVcally
p8819
g243
((lp8820
g946
atp8821
Rp8822
sVally
p8823
g243
((lp8824
g946
atp8825
Rp8826
sVlly
p8827
g243
((lp8828
g946
atp8829
Rp8830
sVtechnicall
p8831
g243
((lp8832
g946
atp8833
Rp8834
sVclassified
p8835
g243
((lp8836
Va15af5d0a4d049c594d61f2469a7dcbc
p8837
atp8838
Rp8839
sVlassified
p8840
g243
((lp8841
g946
atp8842
Rp8843
sVassified
p8844
g243
((lp8845
g946
atp8846
Rp8847
sVssified
p8848
g243
((lp8849
g946
atp8850
Rp8851
sVsified
p8852
g243
((lp8853
g946
atp8854
Rp8855
sVified
p8856
g243
((lp8857
g946
atp8858
Rp8859
sVfied
p8860
g243
((lp8861
g946
atp8862
Rp8863
sVied
p8864
g243
((lp8865
g946
atp8866
Rp8867
sVclassifie
p8868
g243
((lp8869
g946
atp8870
Rp8871
sVobjectives
p8872
g243
((lp8873
Va15af5d0a4d049c594d61f2469a7dcbc
p8874
atp8875
Rp8876
sVob
p8877
g243
((lp8878
g1194
ag946
atp8879
Rp8880
sVbjectives
p8881
g243
((lp8882
g946
atp8883
Rp8884
sVobj
p8885
g243
((lp8886
g946
atp8887
Rp8888
sVjectives
p8889
g243
((lp8890
g946
atp8891
Rp8892
sVobje
p8893
g243
((lp8894
g946
atp8895
Rp8896
sVectives
p8897
g243
((lp8898
g946
atp8899
Rp8900
sVobjec
p8901
g243
((lp8902
g946
atp8903
Rp8904
sVctives
p8905
g243
((lp8906
g946
atp8907
Rp8908
sVobject
p8909
g243
((lp8910
g946
atp8911
Rp8912
sVtives
p8913
g243
((lp8914
g946
atp8915
Rp8916
sVobjecti
p8917
g243
((lp8918
g946
atp8919
Rp8920
sVives
p8921
g243
((lp8922
g946
atp8923
Rp8924
sVobjectiv
p8925
g243
((lp8926
g946
atp8927
Rp8928
sVves
p8929
g243
((lp8930
g946
atp8931
Rp8932
sVobjective
p8933
g243
((lp8934
g946
atp8935
Rp8936
sVresources
p8937
g243
((lp8938
Va15af5d0a4d049c594d61f2469a7dcbc
p8939
atp8940
Rp8941
sVesources
p8942
g243
((lp8943
g946
atp8944
Rp8945
sVsources
p8946
g243
((lp8947
g946
atp8948
Rp8949
sVreso
p8950
g243
((lp8951
g946
atp8952
Rp8953
sVources
p8954
g243
((lp8955
g946
atp8956
Rp8957
sVresou
p8958
g243
((lp8959
g946
atp8960
Rp8961
sVurces
p8962
g243
((lp8963
g946
atp8964
Rp8965
sVresour
p8966
g243
((lp8967
g946
atp8968
Rp8969
sVrces
p8970
g243
((lp8971
g946
atp8972
Rp8973
sVresourc
p8974
g243
((lp8975
g946
atp8976
Rp8977
sVresource
p8978
g243
((lp8979
g946
atp8980
Rp8981
sValigned
p8982
g243
((lp8983
Va15af5d0a4d049c594d61f2469a7dcbc
p8984
atp8985
Rp8986
sVligned
p8987
g243
((lp8988
g946
atp8989
Rp8990
sVali
p8991
g243
((lp8992
g946
atp8993
Rp8994
sVigned
p8995
g243
((lp8996
g1267
ag946
atp8997
Rp8998
sValig
p8999
g243
((lp9000
g946
atp9001
Rp9002
sVgned
p9003
g243
((lp9004
g1267
ag946
atp9005
Rp9006
sValign
p9007
g243
((lp9008
g946
atp9009
Rp9010
sValigne
p9011
g243
((lp9012
g946
atp9013
Rp9014
sVrms-009
p9015
g243
((lp9016
V082cd50632274eb0b40fcc15d3339f88
p9017
atp9018
Rp9019
sVms-009
p9020
g243
((lp9021
g1019
atp9022
Rp9023
sVs-009
p9024
g243
((lp9025
g1019
atp9026
Rp9027
sV-009
p9028
g243
((lp9029
g1019
atp9030
Rp9031
sV009
p9032
g243
((lp9033
g1019
atp9034
Rp9035
sV09
p9036
g243
((lp9037
g1019
atp9038
Rp9039
sVprocessed
p9040
g243
((lp9041
V082cd50632274eb0b40fcc15d3339f88
p9042
atp9043
Rp9044
sVrocessed
p9045
g243
((lp9046
g1019
atp9047
Rp9048
sVocessed
p9049
g243
((lp9050
g1019
atp9051
Rp9052
sVcessed
p9053
g243
((lp9054
g1019
atp9055
Rp9056
sVessed
p9057
g243
((lp9058
g1019
atp9059
Rp9060
sVssed
p9061
g243
((lp9062
g1019
atp9063
Rp9064
sVimpact
p9065
g243
((lp9066
V082cd50632274eb0b40fcc15d3339f88
p9067
aV4b2c183b69974fa3b1c1af98020bf156
p9068
atp9069
Rp9070
sVmpact
p9071
g243
((lp9072
g1019
ag1092
atp9073
Rp9074
sVpact
p9075
g243
((lp9076
g1019
ag1092
atp9077
Rp9078
sVimpa
p9079
g243
((lp9080
g1019
ag1092
atp9081
Rp9082
sVimpac
p9083
g243
((lp9084
g1019
ag1092
atp9085
Rp9086
sVupdates
p9087
g243
((lp9088
V082cd50632274eb0b40fcc15d3339f88
p9089
atp9090
Rp9091
sVup
p9092
g243
((lp9093
g1019
atp9094
Rp9095
sVpdates
p9096
g243
((lp9097
g1019
atp9098
Rp9099
sVupd
p9100
g243
((lp9101
g1019
atp9102
Rp9103
sVdates
p9104
g243
((lp9105
g1019
atp9106
Rp9107
sVupda
p9108
g243
((lp9109
g1019
atp9110
Rp9111
sVates
p9112
g243
((lp9113
g1019
atp9114
Rp9115
sVupdat
p9116
g243
((lp9117
g1019
atp9118
Rp9119
sVtes
p9120
g243
((lp9121
g1267
ag1019
atp9122
Rp9123
sVupdate
p9124
g243
((lp9125
g1019
atp9126
Rp9127
sVanalysis
p9128
g243
((lp9129
V082cd50632274eb0b40fcc15d3339f88
p9130
aV4b2c183b69974fa3b1c1af98020bf156
p9131
atp9132
Rp9133
sVnalysis
p9134
g243
((lp9135
g1019
ag1092
atp9136
Rp9137
sVana
p9138
g243
((lp9139
g1019
ag1092
atp9140
Rp9141
sValysis
p9142
g243
((lp9143
g1019
ag1092
atp9144
Rp9145
sVanal
p9146
g243
((lp9147
g1019
ag1092
atp9148
Rp9149
sVlysis
p9150
g243
((lp9151
g1019
ag1092
atp9152
Rp9153
sVanaly
p9154
g243
((lp9155
g1019
ag1092
atp9156
Rp9157
sVysis
p9158
g243
((lp9159
g1019
ag1092
atp9160
Rp9161
sVanalys
p9162
g243
((lp9163
g1019
ag1092
atp9164
Rp9165
sVsis
p9166
g243
((lp9167
g1019
ag1092
atp9168
Rp9169
sVanalysi
p9170
g243
((lp9171
g1019
ag1092
atp9172
Rp9173
sVprogrammatic
p9174
g243
((lp9175
V082cd50632274eb0b40fcc15d3339f88
p9176
atp9177
Rp9178
sVrogrammatic
p9179
g243
((lp9180
g1019
atp9181
Rp9182
sVogrammatic
p9183
g243
((lp9184
g1019
atp9185
Rp9186
sVgrammatic
p9187
g243
((lp9188
g1019
atp9189
Rp9190
sVrammatic
p9191
g243
((lp9192
g1019
atp9193
Rp9194
sVammatic
p9195
g243
((lp9196
g1019
atp9197
Rp9198
sVmmatic
p9199
g243
((lp9200
g1019
atp9201
Rp9202
sVprogramm
p9203
g243
((lp9204
g1019
atp9205
Rp9206
sVmatic
p9207
g243
((lp9208
g1019
atp9209
Rp9210
sVprogramma
p9211
g243
((lp9212
g1019
atp9213
Rp9214
sVatic
p9215
g243
((lp9216
g1019
atp9217
Rp9218
sVprogrammat
p9219
g243
((lp9220
g1019
atp9221
Rp9222
sVtic
p9223
g243
((lp9224
g1019
atp9225
Rp9226
sVprogrammati
p9227
g243
((lp9228
g1019
atp9229
Rp9230
sVimplications
p9231
g243
((lp9232
V082cd50632274eb0b40fcc15d3339f88
p9233
atp9234
Rp9235
sVmplications
p9236
g243
((lp9237
g1019
atp9238
Rp9239
sVplications
p9240
g243
((lp9241
g1019
atp9242
Rp9243
sVlications
p9244
g243
((lp9245
g1019
atp9246
Rp9247
sVimpli
p9248
g243
((lp9249
g1019
atp9250
Rp9251
sVimplic
p9252
g243
((lp9253
g1019
atp9254
Rp9255
sVimplica
p9256
g243
((lp9257
g1019
atp9258
Rp9259
sVimplicat
p9260
g243
((lp9261
g1019
atp9262
Rp9263
sVimplicati
p9264
g243
((lp9265
g1019
atp9266
Rp9267
sVimplicatio
p9268
g243
((lp9269
g1019
atp9270
Rp9271
sVimplication
p9272
g243
((lp9273
g1019
atp9274
Rp9275
sVconsequences
p9276
g243
((lp9277
V082cd50632274eb0b40fcc15d3339f88
p9278
atp9279
Rp9280
sVonsequences
p9281
g243
((lp9282
g1019
atp9283
Rp9284
sVnsequences
p9285
g243
((lp9286
g1019
atp9287
Rp9288
sVsequences
p9289
g243
((lp9290
g1019
atp9291
Rp9292
sVconse
p9293
g243
((lp9294
g1019
atp9295
Rp9296
sVequences
p9297
g243
((lp9298
g1019
atp9299
Rp9300
sVconseq
p9301
g243
((lp9302
g1019
atp9303
Rp9304
sVquences
p9305
g243
((lp9306
g1019
atp9307
Rp9308
sVconsequ
p9309
g243
((lp9310
g1019
atp9311
Rp9312
sVuences
p9313
g243
((lp9314
g1019
atp9315
Rp9316
sVconseque
p9317
g243
((lp9318
g1019
atp9319
Rp9320
sVences
p9321
g243
((lp9322
g1019
atp9323
Rp9324
sVconsequen
p9325
g243
((lp9326
g1019
atp9327
Rp9328
sVnces
p9329
g243
((lp9330
g1019
atp9331
Rp9332
sVconsequenc
p9333
g243
((lp9334
g1019
atp9335
Rp9336
sVconsequence
p9337
g243
((lp9338
g1019
atp9339
Rp9340
sVevaluated
p9341
g243
((lp9342
V082cd50632274eb0b40fcc15d3339f88
p9343
atp9344
Rp9345
sVev
p9346
g243
((lp9347
g1019
atp9348
Rp9349
sVvaluated
p9350
g243
((lp9351
g1019
atp9352
Rp9353
sVeva
p9354
g243
((lp9355
g1019
atp9356
Rp9357
sValuated
p9358
g243
((lp9359
g1019
atp9360
Rp9361
sVeval
p9362
g243
((lp9363
g1019
atp9364
Rp9365
sVluated
p9366
g243
((lp9367
g1019
atp9368
Rp9369
sVevalu
p9370
g243
((lp9371
g1019
atp9372
Rp9373
sVuated
p9374
g243
((lp9375
g1019
atp9376
Rp9377
sVevalua
p9378
g243
((lp9379
g1019
atp9380
Rp9381
sVevaluat
p9382
g243
((lp9383
g1019
atp9384
Rp9385
sVevaluate
p9386
g243
((lp9387
g1019
atp9388
Rp9389
sVrms-010
p9390
g243
((lp9391
V4b2c183b69974fa3b1c1af98020bf156
p9392
atp9393
Rp9394
sVms-010
p9395
g243
((lp9396
g1092
atp9397
Rp9398
sVs-010
p9399
g243
((lp9400
g1092
atp9401
Rp9402
sV-010
p9403
g243
((lp9404
g1092
atp9405
Rp9406
sV010
p9407
g243
((lp9408
g1092
atp9409
Rp9410
sVrms-01
p9411
g243
((lp9412
g1267
ag1194
ag1092
atp9413
Rp9414
sV10
p9415
g243
((lp9416
g1092
atp9417
Rp9418
sV0
p9419
g243
((lp9420
g1092
atp9421
Rp9422
sVbidirectional
p9423
g243
((lp9424
V4b2c183b69974fa3b1c1af98020bf156
p9425
atp9426
Rp9427
sVbi
p9428
g243
((lp9429
g1092
atp9430
Rp9431
sVidirectional
p9432
g243
((lp9433
g1092
atp9434
Rp9435
sVbid
p9436
g243
((lp9437
g1092
atp9438
Rp9439
sVdirectional
p9440
g243
((lp9441
g1092
atp9442
Rp9443
sVbidi
p9444
g243
((lp9445
g1092
atp9446
Rp9447
sVirectional
p9448
g243
((lp9449
g1092
atp9450
Rp9451
sVbidir
p9452
g243
((lp9453
g1092
atp9454
Rp9455
sVrectional
p9456
g243
((lp9457
g1092
atp9458
Rp9459
sVbidire
p9460
g243
((lp9461
g1092
atp9462
Rp9463
sVectional
p9464
g243
((lp9465
g1092
atp9466
Rp9467
sVbidirec
p9468
g243
((lp9469
g1092
atp9470
Rp9471
sVctional
p9472
g243
((lp9473
g1092
atp9474
Rp9475
sVbidirect
p9476
g243
((lp9477
g1092
atp9478
Rp9479
sVbidirecti
p9480
g243
((lp9481
g1092
atp9482
Rp9483
sVbidirectio
p9484
g243
((lp9485
g1092
atp9486
Rp9487
sVbidirection
p9488
g243
((lp9489
g1092
atp9490
Rp9491
sVbidirectiona
p9492
g243
((lp9493
g1092
atp9494
Rp9495
sVartifacts
p9496
g243
((lp9497
V4b2c183b69974fa3b1c1af98020bf156
p9498
atp9499
Rp9500
sVrtifacts
p9501
g243
((lp9502
g1092
atp9503
Rp9504
sVtifacts
p9505
g243
((lp9506
g1092
atp9507
Rp9508
sVifacts
p9509
g243
((lp9510
g1092
atp9511
Rp9512
sVartif
p9513
g243
((lp9514
g1092
atp9515
Rp9516
sVfacts
p9517
g243
((lp9518
g1092
atp9519
Rp9520
sVartifa
p9521
g243
((lp9522
g1092
atp9523
Rp9524
sVacts
p9525
g243
((lp9526
g1092
atp9527
Rp9528
sVartifac
p9529
g243
((lp9530
g1092
atp9531
Rp9532
sVcts
p9533
g243
((lp9534
g1092
atp9535
Rp9536
sVartifact
p9537
g243
((lp9538
g1092
atp9539
Rp9540
sVmilitary
p9541
g243
((lp9542
V4b2c183b69974fa3b1c1af98020bf156
p9543
atp9544
Rp9545
sVmi
p9546
g243
((lp9547
g1092
atp9548
Rp9549
sVilitary
p9550
g243
((lp9551
g1092
atp9552
Rp9553
sVmil
p9554
g243
((lp9555
g1092
atp9556
Rp9557
sVlitary
p9558
g243
((lp9559
g1092
atp9560
Rp9561
sVmili
p9562
g243
((lp9563
g1092
atp9564
Rp9565
sVitary
p9566
g243
((lp9567
g1092
atp9568
Rp9569
sVmilit
p9570
g243
((lp9571
g1092
atp9572
Rp9573
sVtary
p9574
g243
((lp9575
g1092
atp9576
Rp9577
sVmilita
p9578
g243
((lp9579
g1092
atp9580
Rp9581
sVmilitar
p9582
g243
((lp9583
g1092
atp9584
Rp9585
sVdemonstration
p9586
g243
((lp9587
V4b2c183b69974fa3b1c1af98020bf156
p9588
atp9589
Rp9590
sVemonstration
p9591
g243
((lp9592
g1092
atp9593
Rp9594
sVmonstration
p9595
g243
((lp9596
g1092
atp9597
Rp9598
sVonstration
p9599
g243
((lp9600
g1092
atp9601
Rp9602
sVnstration
p9603
g243
((lp9604
g1092
atp9605
Rp9606
sVstration
p9607
g243
((lp9608
g1092
atp9609
Rp9610
sVtration
p9611
g243
((lp9612
g1092
atp9613
Rp9614
sVdemonstratio
p9615
g243
((lp9616
g1092
atp9617
Rp9618
sVsystems
p9619
g243
((lp9620
V4b2c183b69974fa3b1c1af98020bf156
p9621
atp9622
Rp9623
sVystems
p9624
g243
((lp9625
g1092
atp9626
Rp9627
sVstems
p9628
g243
((lp9629
g1092
atp9630
Rp9631
sVtems
p9632
g243
((lp9633
g1092
atp9634
Rp9635
sVems
p9636
g243
((lp9637
g1092
atp9638
Rp9639
sVaerospace
p9640
g243
((lp9641
V4b2c183b69974fa3b1c1af98020bf156
p9642
atp9643
Rp9644
sVae
p9645
g243
((lp9646
g1092
atp9647
Rp9648
sVerospace
p9649
g243
((lp9650
g1092
atp9651
Rp9652
sVaer
p9653
g243
((lp9654
g1092
atp9655
Rp9656
sVrospace
p9657
g243
((lp9658
g1092
atp9659
Rp9660
sVaero
p9661
g243
((lp9662
g1092
atp9663
Rp9664
sVospace
p9665
g243
((lp9666
g1092
atp9667
Rp9668
sVaeros
p9669
g243
((lp9670
g1092
atp9671
Rp9672
sVspace
p9673
g243
((lp9674
g1092
atp9675
Rp9676
sVaerosp
p9677
g243
((lp9678
g1092
atp9679
Rp9680
sVpace
p9681
g243
((lp9682
g1092
atp9683
Rp9684
sVaerospa
p9685
g243
((lp9686
g1092
atp9687
Rp9688
sVace
p9689
g243
((lp9690
g1092
atp9691
Rp9692
sVaerospac
p9693
g243
((lp9694
g1092
atp9695
Rp9696
sVassessment
p9697
g243
((lp9698
V4b2c183b69974fa3b1c1af98020bf156
p9699
atp9700
Rp9701
sVssessment
p9702
g243
((lp9703
g1092
atp9704
Rp9705
sVass
p9706
g243
((lp9707
g1267
ag1092
atp9708
Rp9709
sVsessment
p9710
g243
((lp9711
g1092
atp9712
Rp9713
sVasse
p9714
g243
((lp9715
g1092
atp9716
Rp9717
sVessment
p9718
g243
((lp9719
g1092
atp9720
Rp9721
sVasses
p9722
g243
((lp9723
g1092
atp9724
Rp9725
sVssment
p9726
g243
((lp9727
g1092
atp9728
Rp9729
sVassess
p9730
g243
((lp9731
g1092
atp9732
Rp9733
sVsment
p9734
g243
((lp9735
g1092
atp9736
Rp9737
sVassessm
p9738
g243
((lp9739
g1092
atp9740
Rp9741
sVassessme
p9742
g243
((lp9743
g1092
atp9744
Rp9745
sVassessmen
p9746
g243
((lp9747
g1092
atp9748
Rp9749
sVautomated
p9750
g243
((lp9751
V4b2c183b69974fa3b1c1af98020bf156
p9752
atp9753
Rp9754
sVutomated
p9755
g243
((lp9756
g1092
atp9757
Rp9758
sVtomated
p9759
g243
((lp9760
g1092
atp9761
Rp9762
sVauto
p9763
g243
((lp9764
g1092
atp9765
Rp9766
sVomated
p9767
g243
((lp9768
g1092
atp9769
Rp9770
sVautom
p9771
g243
((lp9772
g1092
atp9773
Rp9774
sVmated
p9775
g243
((lp9776
g1092
atp9777
Rp9778
sVautoma
p9779
g243
((lp9780
g1092
atp9781
Rp9782
sVautomat
p9783
g243
((lp9784
g1092
atp9785
Rp9786
sVautomate
p9787
g243
((lp9788
g1092
atp9789
Rp9790
sVmatrices
p9791
g243
((lp9792
V4b2c183b69974fa3b1c1af98020bf156
p9793
atp9794
Rp9795
sVatrices
p9796
g243
((lp9797
g1092
atp9798
Rp9799
sVtrices
p9800
g243
((lp9801
g1092
atp9802
Rp9803
sVrices
p9804
g243
((lp9805
g1092
atp9806
Rp9807
sVmatric
p9808
g243
((lp9809
g1092
atp9810
Rp9811
sVmatrice
p9812
g243
((lp9813
g1092
atp9814
Rp9815
sVrms-rol
p9816
g243
((lp9817
V250b77c60e2d4d7d8e2793e941126db6
p9818
atp9819
Rp9820
sVms-rol
p9821
g243
((lp9822
g1278
atp9823
Rp9824
sVs-rol
p9825
g243
((lp9826
g1278
atp9827
Rp9828
sV-rol
p9829
g243
((lp9830
g1278
atp9831
Rp9832
sVrms-r
p9833
g243
((lp9834
g1278
atp9835
Rp9836
sVrms-ro
p9837
g243
((lp9838
g1278
atp9839
Rp9840
sVroles
p9841
g243
((lp9842
V250b77c60e2d4d7d8e2793e941126db6
p9843
atp9844
Rp9845
sVro
p9846
g243
((lp9847
g1278
ag1194
atp9848
Rp9849
sVoles
p9850
g243
((lp9851
g1278
atp9852
Rp9853
sVrole
p9854
g243
((lp9855
g1278
aV9f1baf1773a84f81a64a0d9b7b22a010
p9856
atp9857
Rp9858
sVresponsibilities
p9859
g243
((lp9860
V250b77c60e2d4d7d8e2793e941126db6
p9861
aV9f1baf1773a84f81a64a0d9b7b22a010
p9862
aVea0ee14f2853485f964a51516f2fbd13
p9863
atp9864
Rp9865
sVesponsibilities
p9866
g243
((lp9867
g1278
ag1194
ag1267
atp9868
Rp9869
sVsponsibilities
p9870
g243
((lp9871
g1278
ag1194
ag1267
atp9872
Rp9873
sVresp
p9874
g243
((lp9875
g1278
ag1194
ag1267
atp9876
Rp9877
sVponsibilities
p9878
g243
((lp9879
g1278
ag1194
ag1267
atp9880
Rp9881
sVrespo
p9882
g243
((lp9883
g1278
ag1194
ag1267
atp9884
Rp9885
sVonsibilities
p9886
g243
((lp9887
g1278
ag1194
ag1267
atp9888
Rp9889
sVrespon
p9890
g243
((lp9891
g1278
ag1194
ag1267
atp9892
Rp9893
sVnsibilities
p9894
g243
((lp9895
g1278
ag1194
ag1267
atp9896
Rp9897
sVrespons
p9898
g243
((lp9899
g1278
ag1194
ag1267
atp9900
Rp9901
sVsibilities
p9902
g243
((lp9903
g1278
ag1194
ag1267
atp9904
Rp9905
sVresponsi
p9906
g243
((lp9907
g1278
ag1194
ag1267
atp9908
Rp9909
sVibilities
p9910
g243
((lp9911
g1278
ag1194
ag1267
atp9912
Rp9913
sVresponsib
p9914
g243
((lp9915
g1278
ag1194
ag1267
atp9916
Rp9917
sVresponsibi
p9918
g243
((lp9919
g1278
ag1194
ag1267
atp9920
Rp9921
sVresponsibil
p9922
g243
((lp9923
g1278
ag1194
ag1267
atp9924
Rp9925
sVresponsibili
p9926
g243
((lp9927
g1278
ag1194
ag1267
atp9928
Rp9929
sVresponsibilit
p9930
g243
((lp9931
g1278
ag1194
ag1267
atp9932
Rp9933
sVresponsibiliti
p9934
g243
((lp9935
g1278
ag1194
ag1267
atp9936
Rp9937
sVresponsibilitie
p9938
g243
((lp9939
g1278
ag1194
ag1267
atp9940
Rp9941
sVrms-011
p9942
g243
((lp9943
V9f1baf1773a84f81a64a0d9b7b22a010
p9944
atp9945
Rp9946
sVms-011
p9947
g243
((lp9948
g1194
atp9949
Rp9950
sVs-011
p9951
g243
((lp9952
g1194
atp9953
Rp9954
sV-011
p9955
g243
((lp9956
g1194
atp9957
Rp9958
sV011
p9959
g243
((lp9960
g1194
atp9961
Rp9962
sV11
p9963
g243
((lp9964
g1194
atp9965
Rp9966
sVauthority
p9967
g243
((lp9968
V9f1baf1773a84f81a64a0d9b7b22a010
p9969
atp9970
Rp9971
sVuthority
p9972
g243
((lp9973
g1194
atp9974
Rp9975
sVthority
p9976
g243
((lp9977
g1194
atp9978
Rp9979
sVhority
p9980
g243
((lp9981
g1194
atp9982
Rp9983
sVority
p9984
g243
((lp9985
g1194
atp9986
Rp9987
sVauthorit
p9988
g243
((lp9989
g1194
atp9990
Rp9991
sVresponsible
p9992
g243
((lp9993
Vea0ee14f2853485f964a51516f2fbd13
p9994
aV9f1baf1773a84f81a64a0d9b7b22a010
p9995
atp9996
Rp9997
sVesponsible
p9998
g243
((lp9999
g1267
ag1194
atp10000
Rp10001
sVsponsible
p10002
g243
((lp10003
g1267
ag1194
atp10004
Rp10005
sVponsible
p10006
g243
((lp10007
g1267
ag1194
atp10008
Rp10009
sVonsible
p10010
g243
((lp10011
g1267
ag1194
atp10012
Rp10013
sVnsible
p10014
g243
((lp10015
g1267
ag1194
atp10016
Rp10017
sVsible
p10018
g243
((lp10019
g1267
ag1194
atp10020
Rp10021
sVible
p10022
g243
((lp10023
g1267
ag1194
atp10024
Rp10025
sVresponsibl
p10026
g243
((lp10027
g1267
ag1194
atp10028
Rp10029
sVdesignate
p10030
g243
((lp10031
V9f1baf1773a84f81a64a0d9b7b22a010
p10032
atp10033
Rp10034
sVesignate
p10035
g243
((lp10036
g1194
atp10037
Rp10038
sVsignate
p10039
g243
((lp10040
g1194
atp10041
Rp10042
sVignate
p10043
g243
((lp10044
g1194
atp10045
Rp10046
sVgnate
p10047
g243
((lp10048
g1194
atp10049
Rp10050
sVnate
p10051
g243
((lp10052
g1194
atp10053
Rp10054
sVdesigna
p10055
g243
((lp10056
g1194
atp10057
Rp10058
sVdesignat
p10059
g243
((lp10060
g1194
atp10061
Rp10062
sVoverseeing
p10063
g243
((lp10064
V9f1baf1773a84f81a64a0d9b7b22a010
p10065
atp10066
Rp10067
sVov
p10068
g243
((lp10069
g1194
atp10070
Rp10071
sVverseeing
p10072
g243
((lp10073
g1194
atp10074
Rp10075
sVove
p10076
g243
((lp10077
g1194
atp10078
Rp10079
sVerseeing
p10080
g243
((lp10081
g1194
atp10082
Rp10083
sVover
p10084
g243
((lp10085
g1194
atp10086
Rp10087
sVrseeing
p10088
g243
((lp10089
g1194
atp10090
Rp10091
sVovers
p10092
g243
((lp10093
g1194
atp10094
Rp10095
sVseeing
p10096
g243
((lp10097
g1194
atp10098
Rp10099
sVoverse
p10100
g243
((lp10101
g1194
atp10102
Rp10103
sVeeing
p10104
g243
((lp10105
g1194
atp10106
Rp10107
sVoversee
p10108
g243
((lp10109
g1194
atp10110
Rp10111
sVoverseei
p10112
g243
((lp10113
g1194
atp10114
Rp10115
sVoverseein
p10116
g243
((lp10117
g1194
atp10118
Rp10119
sVconfiguration
p10120
g243
((lp10121
V9f1baf1773a84f81a64a0d9b7b22a010
p10122
atp10123
Rp10124
sVonfiguration
p10125
g243
((lp10126
g1194
atp10127
Rp10128
sVnfiguration
p10129
g243
((lp10130
g1194
atp10131
Rp10132
sVconf
p10133
g243
((lp10134
g1194
atp10135
Rp10136
sVfiguration
p10137
g243
((lp10138
g1194
atp10139
Rp10140
sVconfi
p10141
g243
((lp10142
g1194
atp10143
Rp10144
sViguration
p10145
g243
((lp10146
g1194
atp10147
Rp10148
sVconfig
p10149
g243
((lp10150
g1194
atp10151
Rp10152
sVguration
p10153
g243
((lp10154
g1194
atp10155
Rp10156
sVconfigu
p10157
g243
((lp10158
g1194
atp10159
Rp10160
sVuration
p10161
g243
((lp10162
g1194
atp10163
Rp10164
sVconfigur
p10165
g243
((lp10166
g1194
atp10167
Rp10168
sVconfigura
p10169
g243
((lp10170
g1194
atp10171
Rp10172
sVconfigurat
p10173
g243
((lp10174
g1194
atp10175
Rp10176
sVconfigurati
p10177
g243
((lp10178
g1194
atp10179
Rp10180
sVconfiguratio
p10181
g243
((lp10182
g1194
atp10183
Rp10184
sVdesignated
p10185
g243
((lp10186
V9f1baf1773a84f81a64a0d9b7b22a010
p10187
atp10188
Rp10189
sVesignated
p10190
g243
((lp10191
g1194
atp10192
Rp10193
sVsignated
p10194
g243
((lp10195
g1194
atp10196
Rp10197
sVignated
p10198
g243
((lp10199
g1194
atp10200
Rp10201
sVgnated
p10202
g243
((lp10203
g1194
atp10204
Rp10205
sVnated
p10206
g243
((lp10207
g1194
atp10208
Rp10209
sVusage
p10210
g243
((lp10211
V9f1baf1773a84f81a64a0d9b7b22a010
p10212
atp10213
Rp10214
sVsage
p10215
g243
((lp10216
g1194
atp10217
Rp10218
sVusa
p10219
g243
((lp10220
g1194
atp10221
Rp10222
sVusag
p10223
g243
((lp10224
g1194
atp10225
Rp10226
sVconsistent
p10227
g243
((lp10228
V9f1baf1773a84f81a64a0d9b7b22a010
p10229
atp10230
Rp10231
sVonsistent
p10232
g243
((lp10233
g1194
atp10234
Rp10235
sVnsistent
p10236
g243
((lp10237
g1194
atp10238
Rp10239
sVsistent
p10240
g243
((lp10241
g1194
atp10242
Rp10243
sVistent
p10244
g243
((lp10245
g1194
atp10246
Rp10247
sVstent
p10248
g243
((lp10249
g1194
atp10250
Rp10251
sVtent
p10252
g243
((lp10253
g1194
atp10254
Rp10255
sVconsiste
p10256
g243
((lp10257
g1194
atp10258
Rp10259
sVconsisten
p10260
g243
((lp10261
g1194
atp10262
Rp10263
sVoversight
p10264
g243
((lp10265
V9f1baf1773a84f81a64a0d9b7b22a010
p10266
atp10267
Rp10268
sVversight
p10269
g243
((lp10270
g1194
atp10271
Rp10272
sVersight
p10273
g243
((lp10274
g1194
atp10275
Rp10276
sVrsight
p10277
g243
((lp10278
g1194
atp10279
Rp10280
sVsight
p10281
g243
((lp10282
g1194
atp10283
Rp10284
sVoversi
p10285
g243
((lp10286
g1194
atp10287
Rp10288
sVoversig
p10289
g243
((lp10290
g1194
atp10291
Rp10292
sVoversigh
p10293
g243
((lp10294
g1194
atp10295
Rp10296
sVexpert
p10297
g243
((lp10298
V9f1baf1773a84f81a64a0d9b7b22a010
p10299
atp10300
Rp10301
sVxpert
p10302
g243
((lp10303
g1194
atp10304
Rp10305
sVpert
p10306
g243
((lp10307
g1194
atp10308
Rp10309
sVexpe
p10310
g243
((lp10311
g1194
atp10312
Rp10313
sVert
p10314
g243
((lp10315
g1194
atp10316
Rp10317
sVexper
p10318
g243
((lp10319
g1194
atp10320
Rp10321
sVapplication
p10322
g243
((lp10323
V9f1baf1773a84f81a64a0d9b7b22a010
p10324
atp10325
Rp10326
sVpplication
p10327
g243
((lp10328
g1194
atp10329
Rp10330
sVplication
p10331
g243
((lp10332
g1194
atp10333
Rp10334
sVappl
p10335
g243
((lp10336
g1194
atp10337
Rp10338
sVlication
p10339
g243
((lp10340
g1194
atp10341
Rp10342
sVappli
p10343
g243
((lp10344
g1194
atp10345
Rp10346
sVapplic
p10347
g243
((lp10348
g1194
atp10349
Rp10350
sVapplica
p10351
g243
((lp10352
g1194
atp10353
Rp10354
sVapplicat
p10355
g243
((lp10356
g1194
atp10357
Rp10358
sVapplicati
p10359
g243
((lp10360
g1194
atp10361
Rp10362
sVapplicatio
p10363
g243
((lp10364
g1194
atp10365
Rp10366
sVdescriptions
p10367
g243
((lp10368
V9f1baf1773a84f81a64a0d9b7b22a010
p10369
atp10370
Rp10371
sVescriptions
p10372
g243
((lp10373
g1194
atp10374
Rp10375
sVscriptions
p10376
g243
((lp10377
g1194
atp10378
Rp10379
sVcriptions
p10380
g243
((lp10381
g1194
atp10382
Rp10383
sVriptions
p10384
g243
((lp10385
g1194
atp10386
Rp10387
sViptions
p10388
g243
((lp10389
g1194
atp10390
Rp10391
sVptions
p10392
g243
((lp10393
g1194
atp10394
Rp10395
sVole
p10396
g243
((lp10397
g1194
atp10398
Rp10399
sVorganizational
p10400
g243
((lp10401
V9f1baf1773a84f81a64a0d9b7b22a010
p10402
atp10403
Rp10404
sVrganizational
p10405
g243
((lp10406
g1194
atp10407
Rp10408
sVorg
p10409
g243
((lp10410
g1194
atp10411
Rp10412
sVganizational
p10413
g243
((lp10414
g1194
atp10415
Rp10416
sVorga
p10417
g243
((lp10418
g1194
atp10419
Rp10420
sVanizational
p10421
g243
((lp10422
g1194
atp10423
Rp10424
sVorgan
p10425
g243
((lp10426
g1194
atp10427
Rp10428
sVnizational
p10429
g243
((lp10430
g1194
atp10431
Rp10432
sVorgani
p10433
g243
((lp10434
g1194
atp10435
Rp10436
sVizational
p10437
g243
((lp10438
g1194
atp10439
Rp10440
sVorganiz
p10441
g243
((lp10442
g1194
atp10443
Rp10444
sVzational
p10445
g243
((lp10446
g1194
atp10447
Rp10448
sVorganiza
p10449
g243
((lp10450
g1194
atp10451
Rp10452
sVorganizat
p10453
g243
((lp10454
g1194
atp10455
Rp10456
sVorganizati
p10457
g243
((lp10458
g1194
atp10459
Rp10460
sVorganizatio
p10461
g243
((lp10462
g1194
atp10463
Rp10464
sVorganization
p10465
g243
((lp10466
g1194
atp10467
Rp10468
sVorganizationa
p10469
g243
((lp10470
g1194
atp10471
Rp10472
sVidentifying
p10473
g243
((lp10474
V9f1baf1773a84f81a64a0d9b7b22a010
p10475
atp10476
Rp10477
sVdentifying
p10478
g243
((lp10479
g1194
atp10480
Rp10481
sVentifying
p10482
g243
((lp10483
g1194
atp10484
Rp10485
sVntifying
p10486
g243
((lp10487
g1194
atp10488
Rp10489
sVtifying
p10490
g243
((lp10491
g1194
atp10492
Rp10493
sVifying
p10494
g243
((lp10495
g1194
atp10496
Rp10497
sVfying
p10498
g243
((lp10499
g1194
atp10500
Rp10501
sVidentify
p10502
g243
((lp10503
g1194
atp10504
Rp10505
sVying
p10506
g243
((lp10507
g1194
atp10508
Rp10509
sVidentifyi
p10510
g243
((lp10511
g1194
atp10512
Rp10513
sVidentifyin
p10514
g243
((lp10515
g1194
atp10516
Rp10517
sVchart
p10518
g243
((lp10519
V9f1baf1773a84f81a64a0d9b7b22a010
p10520
atp10521
Rp10522
sVhart
p10523
g243
((lp10524
g1194
atp10525
Rp10526
sVchar
p10527
g243
((lp10528
g1194
atp10529
Rp10530
sVjob
p10531
g243
((lp10532
V9f1baf1773a84f81a64a0d9b7b22a010
p10533
atp10534
Rp10535
sVj
p10536
g243
((lp10537
g1194
atp10538
Rp10539
sVjo
p10540
g243
((lp10541
g1194
atp10542
Rp10543
sVrms-012
p10544
g243
((lp10545
Vea0ee14f2853485f964a51516f2fbd13
p10546
atp10547
Rp10548
sVms-012
p10549
g243
((lp10550
g1267
atp10551
Rp10552
sVs-012
p10553
g243
((lp10554
g1267
atp10555
Rp10556
sV-012
p10557
g243
((lp10558
g1267
atp10559
Rp10560
sV012
p10561
g243
((lp10562
g1267
atp10563
Rp10564
sV12
p10565
g243
((lp10566
g1267
atp10567
Rp10568
sVuthor
p10569
g243
((lp10570
g1267
atp10571
Rp10572
sVthor
p10573
g243
((lp10574
g1267
atp10575
Rp10576
sVhor
p10577
g243
((lp10578
g1267
atp10579
Rp10580
sVlinks
p10581
g243
((lp10582
Vea0ee14f2853485f964a51516f2fbd13
p10583
atp10584
Rp10585
sVinks
p10586
g243
((lp10587
g1267
atp10588
Rp10589
sVlin
p10590
g243
((lp10591
g1267
atp10592
Rp10593
sVnks
p10594
g243
((lp10595
g1267
atp10596
Rp10597
sVlink
p10598
g243
((lp10599
g1267
atp10600
Rp10601
sVks
p10602
g243
((lp10603
g1267
atp10604
Rp10605
sVcreating
p10606
g243
((lp10607
Vea0ee14f2853485f964a51516f2fbd13
p10608
atp10609
Rp10610
sVreating
p10611
g243
((lp10612
g1267
atp10613
Rp10614
sVcre
p10615
g243
((lp10616
g1267
atp10617
Rp10618
sVeating
p10619
g243
((lp10620
g1267
atp10621
Rp10622
sVcrea
p10623
g243
((lp10624
g1267
atp10625
Rp10626
sVcreat
p10627
g243
((lp10628
g1267
atp10629
Rp10630
sVcreati
p10631
g243
((lp10632
g1267
atp10633
Rp10634
sVcreatin
p10635
g243
((lp10636
g1267
atp10637
Rp10638
sVformatted
p10639
g243
((lp10640
Vea0ee14f2853485f964a51516f2fbd13
p10641
atp10642
Rp10643
sVormatted
p10644
g243
((lp10645
g1267
atp10646
Rp10647
sVrmatted
p10648
g243
((lp10649
g1267
atp10650
Rp10651
sVmatted
p10652
g243
((lp10653
g1267
atp10654
Rp10655
sVatted
p10656
g243
((lp10657
g1267
atp10658
Rp10659
sVformat
p10660
g243
((lp10661
g1267
atp10662
Rp10663
sVtted
p10664
g243
((lp10665
g1267
atp10666
Rp10667
sVformatt
p10668
g243
((lp10669
g1267
atp10670
Rp10671
sVformatte
p10672
g243
((lp10673
g1267
atp10674
Rp10675
sVattributes
p10676
g243
((lp10677
Vea0ee14f2853485f964a51516f2fbd13
p10678
atp10679
Rp10680
sVttributes
p10681
g243
((lp10682
g1267
atp10683
Rp10684
sVatt
p10685
g243
((lp10686
g1267
atp10687
Rp10688
sVtributes
p10689
g243
((lp10690
g1267
atp10691
Rp10692
sVattr
p10693
g243
((lp10694
g1267
atp10695
Rp10696
sVributes
p10697
g243
((lp10698
g1267
atp10699
Rp10700
sVattri
p10701
g243
((lp10702
g1267
atp10703
Rp10704
sVibutes
p10705
g243
((lp10706
g1267
atp10707
Rp10708
sVattrib
p10709
g243
((lp10710
g1267
atp10711
Rp10712
sVbutes
p10713
g243
((lp10714
g1267
atp10715
Rp10716
sVattribu
p10717
g243
((lp10718
g1267
atp10719
Rp10720
sVutes
p10721
g243
((lp10722
g1267
atp10723
Rp10724
sVattribut
p10725
g243
((lp10726
g1267
atp10727
Rp10728
sVattribute
p10729
g243
((lp10730
g1267
atp10731
Rp10732
sVauthors
p10733
g243
((lp10734
Vea0ee14f2853485f964a51516f2fbd13
p10735
atp10736
Rp10737
sVuthors
p10738
g243
((lp10739
g1267
atp10740
Rp10741
sVthors
p10742
g243
((lp10743
g1267
atp10744
Rp10745
sVhors
p10746
g243
((lp10747
g1267
atp10748
Rp10749
sVors
p10750
g243
((lp10751
g1267
atp10752
Rp10753
sVrs
p10754
g243
((lp10755
g1267
atp10756
Rp10757
sVdetail
p10758
g243
((lp10759
Vea0ee14f2853485f964a51516f2fbd13
p10760
atp10761
Rp10762
sVetail
p10763
g243
((lp10764
g1267
atp10765
Rp10766
sVdet
p10767
g243
((lp10768
g1267
atp10769
Rp10770
sVtail
p10771
g243
((lp10772
g1267
atp10773
Rp10774
sVdeta
p10775
g243
((lp10776
g1267
atp10777
Rp10778
sVdetai
p10779
g243
((lp10780
g1267
atp10781
Rp10782
sVassignment
p10783
g243
((lp10784
Vea0ee14f2853485f964a51516f2fbd13
p10785
atp10786
Rp10787
sVssignment
p10788
g243
((lp10789
g1267
atp10790
Rp10791
sVsignment
p10792
g243
((lp10793
g1267
atp10794
Rp10795
sVassi
p10796
g243
((lp10797
g1267
atp10798
Rp10799
sVignment
p10800
g243
((lp10801
g1267
atp10802
Rp10803
sVassig
p10804
g243
((lp10805
g1267
atp10806
Rp10807
sVgnment
p10808
g243
((lp10809
g1267
atp10810
Rp10811
sVassign
p10812
g243
((lp10813
g1267
atp10814
Rp10815
sVnment
p10816
g243
((lp10817
g1267
atp10818
Rp10819
sVassignm
p10820
g243
((lp10821
g1267
atp10822
Rp10823
sVassignme
p10824
g243
((lp10825
g1267
atp10826
Rp10827
sVassignmen
p10828
g243
((lp10829
g1267
atp10830
Rp10831
sVnecessary
p10832
g243
((lp10833
Vea0ee14f2853485f964a51516f2fbd13
p10834
atp10835
Rp10836
sVecessary
p10837
g243
((lp10838
g1267
atp10839
Rp10840
sVnec
p10841
g243
((lp10842
g1267
atp10843
Rp10844
sVcessary
p10845
g243
((lp10846
g1267
atp10847
Rp10848
sVnece
p10849
g243
((lp10850
g1267
atp10851
Rp10852
sVessary
p10853
g243
((lp10854
g1267
atp10855
Rp10856
sVneces
p10857
g243
((lp10858
g1267
atp10859
Rp10860
sVssary
p10861
g243
((lp10862
g1267
atp10863
Rp10864
sVnecess
p10865
g243
((lp10866
g1267
atp10867
Rp10868
sVsary
p10869
g243
((lp10870
g1267
atp10871
Rp10872
sVnecessa
p10873
g243
((lp10874
g1267
atp10875
Rp10876
sVnecessar
p10877
g243
((lp10878
g1267
atp10879
Rp10880
sVcreated
p10881
g243
((lp10882
Vea0ee14f2853485f964a51516f2fbd13
p10883
atp10884
Rp10885
sVreated
p10886
g243
((lp10887
g1267
atp10888
Rp10889
sVeated
p10890
g243
((lp10891
g1267
atp10892
Rp10893
sVcreate
p10894
g243
((lp10895
g1267
atp10896
Rp10897
sVclear
p10898
g243
((lp10899
Vea0ee14f2853485f964a51516f2fbd13
p10900
atp10901
Rp10902
sVlear
p10903
g243
((lp10904
g1267
atp10905
Rp10906
sVclea
p10907
g243
((lp10908
g1267
atp10909
Rp10910
sVcreation
p10911
g243
((lp10912
Vea0ee14f2853485f964a51516f2fbd13
p10913
atp10914
Rp10915
sVreation
p10916
g243
((lp10917
g1267
atp10918
Rp10919
sVeation
p10920
g243
((lp10921
g1267
atp10922
Rp10923
sVcreatio
p10924
g243
((lp10925
g1267
atp10926
Rp10927
sVinitial
p10928
g243
((lp10929
Vea0ee14f2853485f964a51516f2fbd13
p10930
atp10931
Rp10932
sVnitial
p10933
g243
((lp10934
g1267
atp10935
Rp10936
sVini
p10937
g243
((lp10938
g1267
atp10939
Rp10940
sVitial
p10941
g243
((lp10942
g1267
atp10943
Rp10944
sVinit
p10945
g243
((lp10946
g1267
atp10947
Rp10948
sVtial
p10949
g243
((lp10950
g1267
atp10951
Rp10952
sViniti
p10953
g243
((lp10954
g1267
atp10955
Rp10956
sVial
p10957
g243
((lp10958
g1267
atp10959
Rp10960
sVinitia
p10961
g243
((lp10962
g1267
atp10963
Rp10964
sVassigned
p10965
g243
((lp10966
Vea0ee14f2853485f964a51516f2fbd13
p10967
atp10968
Rp10969
sVssigned
p10970
g243
((lp10971
g1267
atp10972
Rp10973
sVsigned
p10974
g243
((lp10975
g1267
atp10976
Rp10977
sVassigne
p10978
g243
((lp10979
g1267
atp10980
Rp10981
sVcompleteness
p10982
g243
((lp10983
Vea0ee14f2853485f964a51516f2fbd13
p10984
atp10985
Rp10986
sVompleteness
p10987
g243
((lp10988
g1267
atp10989
Rp10990
sVmpleteness
p10991
g243
((lp10992
g1267
atp10993
Rp10994
sVpleteness
p10995
g243
((lp10996
g1267
atp10997
Rp10998
sVleteness
p10999
g243
((lp11000
g1267
atp11001
Rp11002
sVeteness
p11003
g243
((lp11004
g1267
atp11005
Rp11006
sVteness
p11007
g243
((lp11008
g1267
atp11009
Rp11010
sVeness
p11011
g243
((lp11012
g1267
atp11013
Rp11014
sVcompleten
p11015
g243
((lp11016
g1267
atp11017
Rp11018
sVness
p11019
g243
((lp11020
g1267
atp11021
Rp11022
sVcompletene
p11023
g243
((lp11024
g1267
atp11025
Rp11026
sVcompletenes
p11027
g243
((lp11028
g1267
atp11029
Rp11030
sVauthored
p11031
g243
((lp11032
Vea0ee14f2853485f964a51516f2fbd13
p11033
atp11034
Rp11035
sVuthored
p11036
g243
((lp11037
g1267
atp11038
Rp11039
sVthored
p11040
g243
((lp11041
g1267
atp11042
Rp11043
sVhored
p11044
g243
((lp11045
g1267
atp11046
Rp11047
sVored
p11048
g243
((lp11049
g1267
atp11050
Rp11051
sVauthore
p11052
g243
((lp11053
g1267
atp11054
Rp11055
sVformatting
p11056
g243
((lp11057
Vea0ee14f2853485f964a51516f2fbd13
p11058
atp11059
Rp11060
sVormatting
p11061
g243
((lp11062
g1267
atp11063
Rp11064
sVrmatting
p11065
g243
((lp11066
g1267
atp11067
Rp11068
sVmatting
p11069
g243
((lp11070
g1267
atp11071
Rp11072
sVatting
p11073
g243
((lp11074
g1267
atp11075
Rp11076
sVformatti
p11077
g243
((lp11078
g1267
atp11079
Rp11080
sVformattin
p11081
g243
((lp11082
g1267
atp11083
Rp11084
ssVmap_nodes_by_mid
p11085
(dp11086
Vece266241ce848ada801914b59e84d46
p11087
(dp11088
VMID
p11089
Vece266241ce848ada801914b59e84d46
p11090
sg264
g267
sg273
g275
ssVdcc0e1c931c54fc6b270c583a5645de2
p11091
(dp11092
g11089
Vdcc0e1c931c54fc6b270c583a5645de2
p11093
sg264
g288
sg292
g294
sg298
g300
sg305
g307
sg312
g314
sg319
g321
sg325
g327
sg331
g333
ssV74dd17d0bab34ea2ba20612c3b1507eb
p11094
(dp11095
g11089
V74dd17d0bab34ea2ba20612c3b1507eb
p11096
sg264
g386
sg390
g392
sg396
g398
sg403
g405
sg410
g412
sg417
g419
sg423
g425
sg429
g431
ssV755951b2b64948b4a6ded24d1317f132
p11097
(dp11098
g11089
V755951b2b64948b4a6ded24d1317f132
p11099
sg264
g459
sg463
g465
sg469
g471
sg476
g478
sg483
g485
sg490
g492
sg496
g498
sg502
g504
ssVaa3c723b5f0e4658bed2960a77fa8a6d
p11100
(dp11101
g11089
Vaa3c723b5f0e4658bed2960a77fa8a6d
p11102
sg264
g532
sg536
g538
sg542
g544
sg549
g551
sg556
g558
sg563
g565
sg569
g571
sg575
g577
ssV87b54b1b7084421b8459731c87f4e90e
p11103
(dp11104
g11089
V87b54b1b7084421b8459731c87f4e90e
p11105
sg264
g617
sg621
g623
ssVb2715842af9e45e996a9687a3e27a709
p11106
(dp11107
g11089
Vb2715842af9e45e996a9687a3e27a709
p11108
sg264
g635
sg639
g641
sg645
g647
sg652
g654
sg659
g661
sg666
g668
sg672
g674
sg678
g680
ssVc7ca7f3f64034ca9983bd6484fe655c2
p11109
(dp11110
g11089
Vc7ca7f3f64034ca9983bd6484fe655c2
p11111
sg264
g708
sg712
g714
sg718
g720
sg725
g727
sg732
g734
sg739
g741
sg745
g747
sg751
g753
ssVcf525f283fb0402187572f7af68c46b9
p11112
(dp11113
g11089
Vcf525f283fb0402187572f7af68c46b9
p11114
sg264
g781
sg785
g787
sg791
g793
sg798
g800
sg805
g807
sg812
g814
sg818
g820
sg824
g826
ssV46cb3267795248b68b272751196f2eb5
p11115
(dp11116
g11089
V46cb3267795248b68b272751196f2eb5
p11117
sg264
g865
sg869
g871
ssVa15af5d0a4d049c594d61f2469a7dcbc
p11118
(dp11119
g11089
Va15af5d0a4d049c594d61f2469a7dcbc
p11120
sg264
g883
sg887
g889
sg893
g895
sg900
g902
sg907
g909
sg914
g916
sg920
g922
sg926
g928
ssV082cd50632274eb0b40fcc15d3339f88
p11121
(dp11122
g11089
V082cd50632274eb0b40fcc15d3339f88
p11123
sg264
g956
sg960
g962
sg966
g968
sg973
g975
sg980
g982
sg987
g989
sg993
g995
sg999
g1001
ssV4b2c183b69974fa3b1c1af98020bf156
p11124
(dp11125
g11089
V4b2c183b69974fa3b1c1af98020bf156
p11126
sg264
g1029
sg1033
g1035
sg1039
g1041
sg1046
g1048
sg1053
g1055
sg1060
g1062
sg1066
g1068
sg1072
g1074
ssV250b77c60e2d4d7d8e2793e941126db6
p11127
(dp11128
g11089
V250b77c60e2d4d7d8e2793e941126db6
p11129
sg264
g1113
sg1117
g1119
ssV9f1baf1773a84f81a64a0d9b7b22a010
p11130
(dp11131
g11089
V9f1baf1773a84f81a64a0d9b7b22a010
p11132
sg264
g1131
sg1135
g1137
sg1141
g1143
sg1148
g1150
sg1155
g1157
sg1162
g1164
sg1168
g1170
sg1174
g1176
ssVea0ee14f2853485f964a51516f2fbd13
p11133
(dp11134
g11089
Vea0ee14f2853485f964a51516f2fbd13
p11135
sg264
g1204
sg1208
g1210
sg1214
g1216
sg1221
g1223
sg1228
g1230
sg1235
g1237
sg1241
g1243
sg1247
g1249
sssbsg376
I00
sV_tx_attrs
p11136
NsV_tx_peg_rule
p11137
Nsb.